EXPORTS
    Base64Encoding @1
    Base64Map @2
    FormatString @3
    FormatStringTS @4
    Gets @5
    IPV4_LOOPBACK @6 DATA
    IPV6_LOOPBACK @7 DATA
    Itoa @8
    _Z10ExtendRowsPN14DataStructures5Table3RowEi @9
    _Z10GetFree_Exv @10
    _Z10GetReallocv @11
    _Z10SetFree_ExPFvPvPKcjE @12
    _Z10SetReallocPFPvS_jE @13
    _Z10_DLFree_ExPvPKcj @14
    _Z10_DLReallocPvj @15
    _Z12GetMalloc_Exv @16
    _Z12GetPoolMutexv @17
    _Z12SetMalloc_ExPFPvjPKcjE @18
    _Z12WorkerThreadIN6RakNet16FileListTransfer10ThreadDataEiEjPv@4 @19
    _Z12_DLMalloc_ExjPKcj @20
    _Z12fillBufferMTPvj @21
    _Z12fillBufferMTPvjPjRS0_Ri @22
    _Z13GetFileLengthPKc @23
    _Z13GetMyIP_Win32PN6RakNet13SystemAddressE @24
    _Z13GetRealloc_Exv @25
    _Z13QuoteIfSpacesPc @26
    _Z13ReadChunkSizePcPS_ @27
    _Z13SetRealloc_ExPFPvS_jPKcjE @28
    _Z13SuperFastHashPKci @29
    _Z13_DLRealloc_ExPvjPKcj @30
    _Z14Base64EncodingPKhiPPc @31
    _Z14ReadChunkBlockRjS_PcRN6RakNet9RakStringE @32
    _Z14porges_strlen2Pc @33
    _Z15DirectoryExistsPKc @34
    _Z15GetDLMallocMMapv @35
    _Z15SetDLMallocMMapPFPvjE @36
    _Z16TestModeToStringN6RakNet21NatPunchthroughClient8SendPing8TestModeE @37
    _Z17EpochTimeToStringx @38
    _Z17GetDLMallocMUnmapv @39
    _Z17GetTimeUS_Windowsv @40
    _Z17SetDLMallocMUnmapPFiPvjE @41
    _Z17SuperFastHashFilePKc @42
    _Z18UseRaknetFixedHeapjPFPvjES1_PFiS_jE @43
    _Z19FCM2ParticipantCompRKPN6RakNet19FullyConnectedMesh215FCM2ParticipantES4_ @44
    _Z19FreeRakNetFixedHeapv @45
    _Z19GetTypeMappingIndexc @46
    _Z20SetNotifyOutOfMemoryPFvPKclE @47
    _Z20SplitPacketIndexCompRKjRKPN6RakNet14InternalPacketE @48
    _Z20SuperFastHashFilePtrP6_iobuf @49
    _Z21GetDLMallocDirectMMapv @50
    _Z21GetMyIP_Windows_LinuxPN6RakNet13SystemAddressE @51
    _Z21SetDLMallocDirectMMapPFPvjE @52
    _Z22DomainNameToIP_BerkleyPKcPc @53
    _Z24SuperFastHashIncrementalPKcij @54
    _Z24TimeAndValueQueueCompAscRKPN6RakNet17StatisticsHistory17TimeAndValueQueueES4_ @55
    _Z24WriteFileWithDirectoriesPKcPcj @56
    _Z25DefaultOutOfMemoryHandlerPKcl @57
    _Z25TimeAndValueQueueCompDescRKPN6RakNet17StatisticsHistory17TimeAndValueQueueES4_ @58
    _Z26GetMyIP_Windows_Linux_IPV4PN6RakNet13SystemAddressE @59
    _Z27ConnectionRequestSystemCompRKN6RakNet7Router223ConnectionRequestSystemES3_ @60
    _Z27DomainNameToIP_Berkley_IPV4PKcPc @61
    _Z31DomainNameToIP_Berkley_IPV4And6PKcPc @62
    _Z4Ceild @63
    _Z6printfPKcz @64
    _Z6seedMTj @65
    _Z6seedMTjPjRS_Ri @66
    _Z7FreeRowPN14DataStructures5Table3RowEi @67
    _Z7GetFreev @68
    _Z7IsSlashh @69
    _Z7RowSortRKPN14DataStructures5Table3RowES4_ @70
    _Z7SetFreePFvPvE @71
    _Z7_DLFreePv @72
    _Z7fprintfP6_iobufPKcz @73
    _Z7sprintfPcPKcz @74
    _Z8AddSlashPc @75
    _Z8RakSleepj @76
    _Z8randomMTPjRS_Ri @77
    _Z8randomMTv @78
    _Z8reloadMTPjRS_Ri @79
    _Z8reloadMTv @80
    _Z8snprintfPcjPKcz @81
    _Z9GetMallocv @82
    _Z9SetMallocPFPvjE @83
    _Z9_DLMallocj @84
    _Z9frandomMTPjRS_Ri @85
    _Z9frandomMTv @86
    _ZN10ThreadPoolIN6RakNet16FileListTransfer10ThreadDataEiE10ClearInputEv @87
    _ZN10ThreadPoolIN6RakNet16FileListTransfer10ThreadDataEiE10WasStartedEv @88
    _ZN10ThreadPoolIN6RakNet16FileListTransfer10ThreadDataEiE11StopThreadsEv @89
    _ZN10ThreadPoolIN6RakNet16FileListTransfer10ThreadDataEiE11UnlockInputEv @90
    _ZN10ThreadPoolIN6RakNet16FileListTransfer10ThreadDataEiE12StartThreadsEiiPFPvvEPFvS4_E @91
    _ZN10ThreadPoolIN6RakNet16FileListTransfer10ThreadDataEiE15GetInputAtIndexEj @92
    _ZN10ThreadPoolIN6RakNet16FileListTransfer10ThreadDataEiE18RemoveInputAtIndexEj @93
    _ZN10ThreadPoolIN6RakNet16FileListTransfer10ThreadDataEiE5ClearEv @94
    _ZN10ThreadPoolIN6RakNet16FileListTransfer10ThreadDataEiE8AddInputEPFiS2_PbPvES2_ @95
    _ZN10ThreadPoolIN6RakNet16FileListTransfer10ThreadDataEiE9InputSizeEv @96
    _ZN10ThreadPoolIN6RakNet16FileListTransfer10ThreadDataEiE9LockInputEv @97
    _ZN10ThreadPoolIN6RakNet16FileListTransfer10ThreadDataEiEC1Ev @98
    _ZN10ThreadPoolIN6RakNet16FileListTransfer10ThreadDataEiED1Ev @99
    _ZN11DDTCallback14OnFileProgressEPN6RakNet27FileListTransferCBInterface18FileProgressStructE @100
    _ZN11DDTCallback18OnDownloadCompleteEPN6RakNet27FileListTransferCBInterface22DownloadCompleteStructE @101
    _ZN11DDTCallback6OnFileEPN6RakNet27FileListTransferCBInterface12OnFileStructE @102
    _ZN11DDTCallbackC1Ev @103
    _ZN11DDTCallbackD0Ev @104
    _ZN11DDTCallbackD1Ev @105
    _ZN14DataStructures10LinkedListIP23HuffmanEncodingTreeNodeEC1Ev @106
    _ZN14DataStructures10LinkedListIP23HuffmanEncodingTreeNodeED1Ev @107
    _ZN14DataStructures10LinkedListIP23HuffmanEncodingTreeNodeEppEv @108
    _ZN14DataStructures10MemoryPoolIA128_hE11SetPageSizeEi @109
    _ZN14DataStructures10MemoryPoolIA128_hE5ClearEPKcj @110
    _ZN14DataStructures10MemoryPoolIA128_hE7ReleaseEPS1_PKcj @111
    _ZN14DataStructures10MemoryPoolIA128_hE8AllocateEPKcj @112
    _ZN14DataStructures10MemoryPoolIA128_hE8InitPageEPNS2_4PageES4_PKcj @113
    _ZN14DataStructures10MemoryPoolIA128_hEC1Ev @114
    _ZN14DataStructures10MemoryPoolIA128_hED1Ev @115
    _ZN14DataStructures10MemoryPoolIA2048_hE11SetPageSizeEi @116
    _ZN14DataStructures10MemoryPoolIA2048_hE5ClearEPKcj @117
    _ZN14DataStructures10MemoryPoolIA2048_hE7ReleaseEPS1_PKcj @118
    _ZN14DataStructures10MemoryPoolIA2048_hE8AllocateEPKcj @119
    _ZN14DataStructures10MemoryPoolIA2048_hE8InitPageEPNS2_4PageES4_PKcj @120
    _ZN14DataStructures10MemoryPoolIA2048_hEC1Ev @121
    _ZN14DataStructures10MemoryPoolIA2048_hED1Ev @122
    _ZN14DataStructures10MemoryPoolIA512_hE11SetPageSizeEi @123
    _ZN14DataStructures10MemoryPoolIA512_hE5ClearEPKcj @124
    _ZN14DataStructures10MemoryPoolIA512_hE7ReleaseEPS1_PKcj @125
    _ZN14DataStructures10MemoryPoolIA512_hE8AllocateEPKcj @126
    _ZN14DataStructures10MemoryPoolIA512_hE8InitPageEPNS2_4PageES4_PKcj @127
    _ZN14DataStructures10MemoryPoolIA512_hEC1Ev @128
    _ZN14DataStructures10MemoryPoolIA512_hED1Ev @129
    _ZN14DataStructures10MemoryPoolIA8192_hE11SetPageSizeEi @130
    _ZN14DataStructures10MemoryPoolIA8192_hE5ClearEPKcj @131
    _ZN14DataStructures10MemoryPoolIA8192_hE7ReleaseEPS1_PKcj @132
    _ZN14DataStructures10MemoryPoolIA8192_hE8AllocateEPKcj @133
    _ZN14DataStructures10MemoryPoolIA8192_hE8InitPageEPNS2_4PageES4_PKcj @134
    _ZN14DataStructures10MemoryPoolIA8192_hEC1Ev @135
    _ZN14DataStructures10MemoryPoolIA8192_hED1Ev @136
    _ZN14DataStructures10MemoryPoolIN6RakNet12UDPForwarder20StopForwardingStructEE11SetPageSizeEi @137
    _ZN14DataStructures10MemoryPoolIN6RakNet12UDPForwarder20StopForwardingStructEE5ClearEPKcj @138
    _ZN14DataStructures10MemoryPoolIN6RakNet12UDPForwarder20StopForwardingStructEE7ReleaseEPS3_PKcj @139
    _ZN14DataStructures10MemoryPoolIN6RakNet12UDPForwarder20StopForwardingStructEE8AllocateEPKcj @140
    _ZN14DataStructures10MemoryPoolIN6RakNet12UDPForwarder20StopForwardingStructEE8InitPageEPNS4_4PageES6_PKcj @141
    _ZN14DataStructures10MemoryPoolIN6RakNet12UDPForwarder20StopForwardingStructEEC1Ev @142
    _ZN14DataStructures10MemoryPoolIN6RakNet12UDPForwarder20StopForwardingStructEED1Ev @143
    _ZN14DataStructures10MemoryPoolIN6RakNet12UDPForwarder26StartForwardingInputStructEE11SetPageSizeEi @144
    _ZN14DataStructures10MemoryPoolIN6RakNet12UDPForwarder26StartForwardingInputStructEE5ClearEPKcj @145
    _ZN14DataStructures10MemoryPoolIN6RakNet12UDPForwarder26StartForwardingInputStructEE7ReleaseEPS3_PKcj @146
    _ZN14DataStructures10MemoryPoolIN6RakNet12UDPForwarder26StartForwardingInputStructEE8AllocateEPKcj @147
    _ZN14DataStructures10MemoryPoolIN6RakNet12UDPForwarder26StartForwardingInputStructEE8InitPageEPNS4_4PageES6_PKcj @148
    _ZN14DataStructures10MemoryPoolIN6RakNet12UDPForwarder26StartForwardingInputStructEEC1Ev @149
    _ZN14DataStructures10MemoryPoolIN6RakNet12UDPForwarder26StartForwardingInputStructEED1Ev @150
    _ZN14DataStructures10MemoryPoolIN6RakNet13SystemAddressEE5ClearEPKcj @151
    _ZN14DataStructures10MemoryPoolIN6RakNet13SystemAddressEE7ReleaseEPS2_PKcj @152
    _ZN14DataStructures10MemoryPoolIN6RakNet13SystemAddressEE8AllocateEPKcj @153
    _ZN14DataStructures10MemoryPoolIN6RakNet13SystemAddressEE8InitPageEPNS3_4PageES5_PKcj @154
    _ZN14DataStructures10MemoryPoolIN6RakNet13SystemAddressEEC1Ev @155
    _ZN14DataStructures10MemoryPoolIN6RakNet13SystemAddressEED1Ev @156
    _ZN14DataStructures10MemoryPoolIN6RakNet14InternalPacketEE11SetPageSizeEi @157
    _ZN14DataStructures10MemoryPoolIN6RakNet14InternalPacketEE5ClearEPKcj @158
    _ZN14DataStructures10MemoryPoolIN6RakNet14InternalPacketEE7ReleaseEPS2_PKcj @159
    _ZN14DataStructures10MemoryPoolIN6RakNet14InternalPacketEE8AllocateEPKcj @160
    _ZN14DataStructures10MemoryPoolIN6RakNet14InternalPacketEE8InitPageEPNS3_4PageES5_PKcj @161
    _ZN14DataStructures10MemoryPoolIN6RakNet14InternalPacketEEC1Ev @162
    _ZN14DataStructures10MemoryPoolIN6RakNet14InternalPacketEED1Ev @163
    _ZN14DataStructures10MemoryPoolIN6RakNet16ReliabilityLayer17MessageNumberNodeEE11SetPageSizeEi @164
    _ZN14DataStructures10MemoryPoolIN6RakNet16ReliabilityLayer17MessageNumberNodeEE5ClearEPKcj @165
    _ZN14DataStructures10MemoryPoolIN6RakNet16ReliabilityLayer17MessageNumberNodeEE7ReleaseEPS3_PKcj @166
    _ZN14DataStructures10MemoryPoolIN6RakNet16ReliabilityLayer17MessageNumberNodeEE8AllocateEPKcj @167
    _ZN14DataStructures10MemoryPoolIN6RakNet16ReliabilityLayer17MessageNumberNodeEE8InitPageEPNS4_4PageES6_PKcj @168
    _ZN14DataStructures10MemoryPoolIN6RakNet16ReliabilityLayer17MessageNumberNodeEEC1Ev @169
    _ZN14DataStructures10MemoryPoolIN6RakNet16ReliabilityLayer17MessageNumberNodeEED1Ev @170
    _ZN14DataStructures10MemoryPoolIN6RakNet17RemoteSystemIndexEE11SetPageSizeEi @171
    _ZN14DataStructures10MemoryPoolIN6RakNet17RemoteSystemIndexEE5ClearEPKcj @172
    _ZN14DataStructures10MemoryPoolIN6RakNet17RemoteSystemIndexEE7ReleaseEPS2_PKcj @173
    _ZN14DataStructures10MemoryPoolIN6RakNet17RemoteSystemIndexEE8AllocateEPKcj @174
    _ZN14DataStructures10MemoryPoolIN6RakNet17RemoteSystemIndexEE8InitPageEPNS3_4PageES5_PKcj @175
    _ZN14DataStructures10MemoryPoolIN6RakNet17RemoteSystemIndexEEC1Ev @176
    _ZN14DataStructures10MemoryPoolIN6RakNet17RemoteSystemIndexEED1Ev @177
    _ZN14DataStructures10MemoryPoolIN6RakNet23VariableDeltaSerializer20ChangedVariablesListEE5ClearEPKcj @178
    _ZN14DataStructures10MemoryPoolIN6RakNet23VariableDeltaSerializer20ChangedVariablesListEE7ReleaseEPS3_PKcj @179
    _ZN14DataStructures10MemoryPoolIN6RakNet23VariableDeltaSerializer20ChangedVariablesListEE8AllocateEPKcj @180
    _ZN14DataStructures10MemoryPoolIN6RakNet23VariableDeltaSerializer20ChangedVariablesListEE8InitPageEPNS4_4PageES6_PKcj @181
    _ZN14DataStructures10MemoryPoolIN6RakNet23VariableDeltaSerializer20ChangedVariablesListEEC1Ev @182
    _ZN14DataStructures10MemoryPoolIN6RakNet23VariableDeltaSerializer20ChangedVariablesListEED1Ev @183
    _ZN14DataStructures10MemoryPoolIN6RakNet28InternalPacketRefCountedDataEE11SetPageSizeEi @184
    _ZN14DataStructures10MemoryPoolIN6RakNet28InternalPacketRefCountedDataEE5ClearEPKcj @185
    _ZN14DataStructures10MemoryPoolIN6RakNet28InternalPacketRefCountedDataEE7ReleaseEPS2_PKcj @186
    _ZN14DataStructures10MemoryPoolIN6RakNet28InternalPacketRefCountedDataEE8AllocateEPKcj @187
    _ZN14DataStructures10MemoryPoolIN6RakNet28InternalPacketRefCountedDataEE8InitPageEPNS3_4PageES5_PKcj @188
    _ZN14DataStructures10MemoryPoolIN6RakNet28InternalPacketRefCountedDataEEC1Ev @189
    _ZN14DataStructures10MemoryPoolIN6RakNet28InternalPacketRefCountedDataEED1Ev @190
    _ZN14DataStructures10MemoryPoolIN6RakNet6PacketEE11SetPageSizeEi @191
    _ZN14DataStructures10MemoryPoolIN6RakNet6PacketEE5ClearEPKcj @192
    _ZN14DataStructures10MemoryPoolIN6RakNet6PacketEE7ReleaseEPS2_PKcj @193
    _ZN14DataStructures10MemoryPoolIN6RakNet6PacketEE8AllocateEPKcj @194
    _ZN14DataStructures10MemoryPoolIN6RakNet6PacketEE8InitPageEPNS3_4PageES5_PKcj @195
    _ZN14DataStructures10MemoryPoolIN6RakNet6PacketEEC1Ev @196
    _ZN14DataStructures10MemoryPoolIN6RakNet6PacketEED1Ev @197
    _ZN14DataStructures10MemoryPoolIN6RakNet7RakPeer17SocketQueryOutputEE11SetPageSizeEi @198
    _ZN14DataStructures10MemoryPoolIN6RakNet7RakPeer17SocketQueryOutputEE5ClearEPKcj @199
    _ZN14DataStructures10MemoryPoolIN6RakNet7RakPeer17SocketQueryOutputEE7ReleaseEPS3_PKcj @200
    _ZN14DataStructures10MemoryPoolIN6RakNet7RakPeer17SocketQueryOutputEE8AllocateEPKcj @201
    _ZN14DataStructures10MemoryPoolIN6RakNet7RakPeer17SocketQueryOutputEE8InitPageEPNS4_4PageES6_PKcj @202
    _ZN14DataStructures10MemoryPoolIN6RakNet7RakPeer17SocketQueryOutputEEC1Ev @203
    _ZN14DataStructures10MemoryPoolIN6RakNet7RakPeer17SocketQueryOutputEED1Ev @204
    _ZN14DataStructures10MemoryPoolIN6RakNet7RakPeer21BufferedCommandStructEE11SetPageSizeEi @205
    _ZN14DataStructures10MemoryPoolIN6RakNet7RakPeer21BufferedCommandStructEE5ClearEPKcj @206
    _ZN14DataStructures10MemoryPoolIN6RakNet7RakPeer21BufferedCommandStructEE7ReleaseEPS3_PKcj @207
    _ZN14DataStructures10MemoryPoolIN6RakNet7RakPeer21BufferedCommandStructEE8AllocateEPKcj @208
    _ZN14DataStructures10MemoryPoolIN6RakNet7RakPeer21BufferedCommandStructEE8InitPageEPNS4_4PageES6_PKcj @209
    _ZN14DataStructures10MemoryPoolIN6RakNet7RakPeer21BufferedCommandStructEEC1Ev @210
    _ZN14DataStructures10MemoryPoolIN6RakNet7RakPeer21BufferedCommandStructEED1Ev @211
    _ZN14DataStructures10MemoryPoolINS_4PageIjPNS_5Table3RowELi16EEEE5ClearEPKcj @212
    _ZN14DataStructures10MemoryPoolINS_4PageIjPNS_5Table3RowELi16EEEE7ReleaseEPS5_PKcj @213
    _ZN14DataStructures10MemoryPoolINS_4PageIjPNS_5Table3RowELi16EEEE8AllocateEPKcj @214
    _ZN14DataStructures10MemoryPoolINS_4PageIjPNS_5Table3RowELi16EEEE8InitPageEPNS6_4PageES8_PKcj @215
    _ZN14DataStructures10MemoryPoolINS_4PageIjPNS_5Table3RowELi16EEEEC1Ev @216
    _ZN14DataStructures10MemoryPoolINS_4PageIjPNS_5Table3RowELi16EEEED1Ev @217
    _ZN14DataStructures10MemoryPoolIPN6RakNet12RemoteClientEE5ClearEPKcj @218
    _ZN14DataStructures10MemoryPoolIPN6RakNet12RemoteClientEE7ReleaseEPS3_PKcj @219
    _ZN14DataStructures10MemoryPoolIPN6RakNet12RemoteClientEEC1Ev @220
    _ZN14DataStructures10MemoryPoolIPN6RakNet12RemoteClientEED1Ev @221
    _ZN14DataStructures11OrderedListIN6RakNet10RakNetGUIDENS1_10ReadyEvent12RemoteSystemEXadL_ZNS3_22RemoteSystemCompByGuidERKS2_RKS4_EEE13InsertAtIndexES8_jPKcj @222
    _ZN14DataStructures11OrderedListIN6RakNet10RakNetGUIDENS1_10ReadyEvent12RemoteSystemEXadL_ZNS3_22RemoteSystemCompByGuidERKS2_RKS4_EEE13RemoveAtIndexEj @223
    _ZN14DataStructures11OrderedListIN6RakNet10RakNetGUIDENS1_10ReadyEvent12RemoteSystemEXadL_ZNS3_22RemoteSystemCompByGuidERKS2_RKS4_EEE5ClearEbPKcj @224
    _ZN14DataStructures11OrderedListIN6RakNet10RakNetGUIDENS1_10ReadyEvent12RemoteSystemEXadL_ZNS3_22RemoteSystemCompByGuidERKS2_RKS4_EEEC1Ev @225
    _ZN14DataStructures11OrderedListIN6RakNet10RakNetGUIDENS1_10ReadyEvent12RemoteSystemEXadL_ZNS3_22RemoteSystemCompByGuidERKS2_RKS4_EEED1Ev @226
    _ZN14DataStructures11OrderedListIN6RakNet10RakNetGUIDEPNS1_11CloudServer12RemoteServerEXadL_ZNS3_16RemoteServerCompERKS2_RKS5_EEE13InsertAtIndexES9_jPKcj @227
    _ZN14DataStructures11OrderedListIN6RakNet10RakNetGUIDEPNS1_11CloudServer12RemoteServerEXadL_ZNS3_16RemoteServerCompERKS2_RKS5_EEE13RemoveAtIndexEj @228
    _ZN14DataStructures11OrderedListIN6RakNet10RakNetGUIDEPNS1_11CloudServer12RemoteServerEXadL_ZNS3_16RemoteServerCompERKS2_RKS5_EEE5ClearEbPKcj @229
    _ZN14DataStructures11OrderedListIN6RakNet10RakNetGUIDEPNS1_11CloudServer12RemoteServerEXadL_ZNS3_16RemoteServerCompERKS2_RKS5_EEEC1Ev @230
    _ZN14DataStructures11OrderedListIN6RakNet10RakNetGUIDEPNS1_11CloudServer12RemoteServerEXadL_ZNS3_16RemoteServerCompERKS2_RKS5_EEED1Ev @231
    _ZN14DataStructures11OrderedListIN6RakNet10RakNetGUIDEPNS1_11CloudServer29BufferedGetResponseFromServerEXadL_ZNS3_33BufferedGetResponseFromServerCompERKS2_RKS5_EEE13RemoveAtIndexEj @232
    _ZN14DataStructures11OrderedListIN6RakNet10RakNetGUIDEPNS1_11CloudServer29BufferedGetResponseFromServerEXadL_ZNS3_33BufferedGetResponseFromServerCompERKS2_RKS5_EEE5ClearEbPKcj @233
    _ZN14DataStructures11OrderedListIN6RakNet10RakNetGUIDEPNS1_11CloudServer29BufferedGetResponseFromServerEXadL_ZNS3_33BufferedGetResponseFromServerCompERKS2_RKS5_EEE6InsertES7_S9_bPKcjPFiS7_S9_E @234
    _ZN14DataStructures11OrderedListIN6RakNet10RakNetGUIDEPNS1_11CloudServer29BufferedGetResponseFromServerEXadL_ZNS3_33BufferedGetResponseFromServerCompERKS2_RKS5_EEEC1Ev @235
    _ZN14DataStructures11OrderedListIN6RakNet10RakNetGUIDEPNS1_11CloudServer29BufferedGetResponseFromServerEXadL_ZNS3_33BufferedGetResponseFromServerCompERKS2_RKS5_EEED1Ev @236
    _ZN14DataStructures11OrderedListIN6RakNet10RakNetGUIDEPNS1_11CloudServer9CloudDataEXadL_ZNS3_14KeyDataPtrCompERKS2_RKS5_EEE13RemoveAtIndexEj @237
    _ZN14DataStructures11OrderedListIN6RakNet10RakNetGUIDEPNS1_11CloudServer9CloudDataEXadL_ZNS3_14KeyDataPtrCompERKS2_RKS5_EEE5ClearEbPKcj @238
    _ZN14DataStructures11OrderedListIN6RakNet10RakNetGUIDEPNS1_11CloudServer9CloudDataEXadL_ZNS3_14KeyDataPtrCompERKS2_RKS5_EEE6InsertES7_S9_bPKcjPFiS7_S9_E @239
    _ZN14DataStructures11OrderedListIN6RakNet10RakNetGUIDEPNS1_11CloudServer9CloudDataEXadL_ZNS3_14KeyDataPtrCompERKS2_RKS5_EEEC1Ev @240
    _ZN14DataStructures11OrderedListIN6RakNet10RakNetGUIDEPNS1_11CloudServer9CloudDataEXadL_ZNS3_14KeyDataPtrCompERKS2_RKS5_EEED1Ev @241
    _ZN14DataStructures11OrderedListIN6RakNet10RakNetGUIDEPNS1_16ConnectionGraph212RemoteSystemEXadL_ZNS3_16RemoteSystemCompERKS2_RKS5_EEE13InsertAtIndexES9_jPKcj @242
    _ZN14DataStructures11OrderedListIN6RakNet10RakNetGUIDEPNS1_16ConnectionGraph212RemoteSystemEXadL_ZNS3_16RemoteSystemCompERKS2_RKS5_EEE13RemoveAtIndexEj @243
    _ZN14DataStructures11OrderedListIN6RakNet10RakNetGUIDEPNS1_16ConnectionGraph212RemoteSystemEXadL_ZNS3_16RemoteSystemCompERKS2_RKS5_EEE5ClearEbPKcj @244
    _ZN14DataStructures11OrderedListIN6RakNet10RakNetGUIDEPNS1_16ConnectionGraph212RemoteSystemEXadL_ZNS3_16RemoteSystemCompERKS2_RKS5_EEEC1Ev @245
    _ZN14DataStructures11OrderedListIN6RakNet10RakNetGUIDEPNS1_16ConnectionGraph212RemoteSystemEXadL_ZNS3_16RemoteSystemCompERKS2_RKS5_EEED1Ev @246
    _ZN14DataStructures11OrderedListIN6RakNet10RakNetGUIDEPNS1_21NatPunchthroughServer4UserEXadL_ZNS3_23NatPunchthroughUserCompERKS2_RKS5_EEE13RemoveAtIndexEj @247
    _ZN14DataStructures11OrderedListIN6RakNet10RakNetGUIDEPNS1_21NatPunchthroughServer4UserEXadL_ZNS3_23NatPunchthroughUserCompERKS2_RKS5_EEE5ClearEbPKcj @248
    _ZN14DataStructures11OrderedListIN6RakNet10RakNetGUIDEPNS1_21NatPunchthroughServer4UserEXadL_ZNS3_23NatPunchthroughUserCompERKS2_RKS5_EEE6InsertES7_S9_bPKcjPFiS7_S9_E @249
    _ZN14DataStructures11OrderedListIN6RakNet10RakNetGUIDEPNS1_21NatPunchthroughServer4UserEXadL_ZNS3_23NatPunchthroughUserCompERKS2_RKS5_EEEC1Ev @250
    _ZN14DataStructures11OrderedListIN6RakNet10RakNetGUIDEPNS1_21NatPunchthroughServer4UserEXadL_ZNS3_23NatPunchthroughUserCompERKS2_RKS5_EEED1Ev @251
    _ZN14DataStructures11OrderedListIN6RakNet10RakNetGUIDES2_XadL_ZNS_28defaultOrderedListComparisonIS2_S2_EEiRKT_RKT0_EEE11InsertAtEndERKS2_PKcj @252
    _ZN14DataStructures11OrderedListIN6RakNet10RakNetGUIDES2_XadL_ZNS_28defaultOrderedListComparisonIS2_S2_EEiRKT_RKT0_EEE13RemoveAtIndexEj @253
    _ZN14DataStructures11OrderedListIN6RakNet10RakNetGUIDES2_XadL_ZNS_28defaultOrderedListComparisonIS2_S2_EEiRKT_RKT0_EEE5ClearEbPKcj @254
    _ZN14DataStructures11OrderedListIN6RakNet10RakNetGUIDES2_XadL_ZNS_28defaultOrderedListComparisonIS2_S2_EEiRKT_RKT0_EEE6InsertERKS2_SC_bPKcjPFiSC_SC_E @255
    _ZN14DataStructures11OrderedListIN6RakNet10RakNetGUIDES2_XadL_ZNS_28defaultOrderedListComparisonIS2_S2_EEiRKT_RKT0_EEE6RemoveERKS2_PFiSC_SC_E @256
    _ZN14DataStructures11OrderedListIN6RakNet10RakNetGUIDES2_XadL_ZNS_28defaultOrderedListComparisonIS2_S2_EEiRKT_RKT0_EEEC1Ev @257
    _ZN14DataStructures11OrderedListIN6RakNet10RakNetGUIDES2_XadL_ZNS_28defaultOrderedListComparisonIS2_S2_EEiRKT_RKT0_EEED1Ev @258
    _ZN14DataStructures11OrderedListIN6RakNet13SystemAddressENS_3MapIS2_PNS_9ByteQueueEXadL_ZNS_23defaultMapKeyComparisonIS2_EEiRKT_S9_EEE7MapNodeEXadL_ZNSA_18NodeComparisonFuncERKS2_RKSB_EEE13RemoveAtIndexEj @259
    _ZN14DataStructures11OrderedListIN6RakNet13SystemAddressENS_3MapIS2_PNS_9ByteQueueEXadL_ZNS_23defaultMapKeyComparisonIS2_EEiRKT_S9_EEE7MapNodeEXadL_ZNSA_18NodeComparisonFuncERKS2_RKSB_EEE5ClearEbPKcj @260
    _ZN14DataStructures11OrderedListIN6RakNet13SystemAddressENS_3MapIS2_PNS_9ByteQueueEXadL_ZNS_23defaultMapKeyComparisonIS2_EEiRKT_S9_EEE7MapNodeEXadL_ZNSA_18NodeComparisonFuncERKS2_RKSB_EEE6InsertESD_SF_bPKcjPFiSD_SF_E @261
    _ZN14DataStructures11OrderedListIN6RakNet13SystemAddressENS_3MapIS2_PNS_9ByteQueueEXadL_ZNS_23defaultMapKeyComparisonIS2_EEiRKT_S9_EEE7MapNodeEXadL_ZNSA_18NodeComparisonFuncERKS2_RKSB_EEEC1Ev @262
    _ZN14DataStructures11OrderedListIN6RakNet13SystemAddressENS_3MapIS2_PNS_9ByteQueueEXadL_ZNS_23defaultMapKeyComparisonIS2_EEiRKT_S9_EEE7MapNodeEXadL_ZNSA_18NodeComparisonFuncERKS2_RKSB_EEED1Ev @263
    _ZN14DataStructures11OrderedListIN6RakNet13SystemAddressES2_XadL_ZNS_28defaultOrderedListComparisonIS2_S2_EEiRKT_RKT0_EEE13InsertAtIndexERKS2_jPKcj @264
    _ZN14DataStructures11OrderedListIN6RakNet13SystemAddressES2_XadL_ZNS_28defaultOrderedListComparisonIS2_S2_EEiRKT_RKT0_EEE13RemoveAtIndexEj @265
    _ZN14DataStructures11OrderedListIN6RakNet13SystemAddressES2_XadL_ZNS_28defaultOrderedListComparisonIS2_S2_EEiRKT_RKT0_EEE14RemoveIfExistsERKS2_PFiSC_SC_E @266
    _ZN14DataStructures11OrderedListIN6RakNet13SystemAddressES2_XadL_ZNS_28defaultOrderedListComparisonIS2_S2_EEiRKT_RKT0_EEE5ClearEbPKcj @267
    _ZN14DataStructures11OrderedListIN6RakNet13SystemAddressES2_XadL_ZNS_28defaultOrderedListComparisonIS2_S2_EEiRKT_RKT0_EEE6InsertERKS2_SC_bPKcjPFiSC_SC_E @268
    _ZN14DataStructures11OrderedListIN6RakNet13SystemAddressES2_XadL_ZNS_28defaultOrderedListComparisonIS2_S2_EEiRKT_RKT0_EEEC1Ev @269
    _ZN14DataStructures11OrderedListIN6RakNet13SystemAddressES2_XadL_ZNS_28defaultOrderedListComparisonIS2_S2_EEiRKT_RKT0_EEED1Ev @270
    _ZN14DataStructures11OrderedListIN6RakNet16ConnectionGraph220SystemAddressAndGuidES3_XadL_ZNS2_24SystemAddressAndGuidCompERKS3_S5_EEE13InsertAtIndexES5_jPKcj @271
    _ZN14DataStructures11OrderedListIN6RakNet16ConnectionGraph220SystemAddressAndGuidES3_XadL_ZNS2_24SystemAddressAndGuidCompERKS3_S5_EEE13RemoveAtIndexEj @272
    _ZN14DataStructures11OrderedListIN6RakNet16ConnectionGraph220SystemAddressAndGuidES3_XadL_ZNS2_24SystemAddressAndGuidCompERKS3_S5_EEE5ClearEbPKcj @273
    _ZN14DataStructures11OrderedListIN6RakNet16ConnectionGraph220SystemAddressAndGuidES3_XadL_ZNS2_24SystemAddressAndGuidCompERKS3_S5_EEEC1Ev @274
    _ZN14DataStructures11OrderedListIN6RakNet16ConnectionGraph220SystemAddressAndGuidES3_XadL_ZNS2_24SystemAddressAndGuidCompERKS3_S5_EEED1Ev @275
    _ZN14DataStructures11OrderedListIN6RakNet19UDPProxyCoordinator22SenderAndTargetAddressEPNS2_17ForwardingRequestEXadL_ZNS2_21ForwardingRequestCompERKS3_RKS5_EEE13InsertAtIndexES9_jPKcj @276
    _ZN14DataStructures11OrderedListIN6RakNet19UDPProxyCoordinator22SenderAndTargetAddressEPNS2_17ForwardingRequestEXadL_ZNS2_21ForwardingRequestCompERKS3_RKS5_EEE13RemoveAtIndexEj @277
    _ZN14DataStructures11OrderedListIN6RakNet19UDPProxyCoordinator22SenderAndTargetAddressEPNS2_17ForwardingRequestEXadL_ZNS2_21ForwardingRequestCompERKS3_RKS5_EEE5ClearEbPKcj @278
    _ZN14DataStructures11OrderedListIN6RakNet19UDPProxyCoordinator22SenderAndTargetAddressEPNS2_17ForwardingRequestEXadL_ZNS2_21ForwardingRequestCompERKS3_RKS5_EEE6RemoveES7_PFiS7_S9_E @279
    _ZN14DataStructures11OrderedListIN6RakNet19UDPProxyCoordinator22SenderAndTargetAddressEPNS2_17ForwardingRequestEXadL_ZNS2_21ForwardingRequestCompERKS3_RKS5_EEEC1Ev @280
    _ZN14DataStructures11OrderedListIN6RakNet19UDPProxyCoordinator22SenderAndTargetAddressEPNS2_17ForwardingRequestEXadL_ZNS2_21ForwardingRequestCompERKS3_RKS5_EEED1Ev @281
    _ZN14DataStructures11OrderedListIN6RakNet4RPC415LocalSlotObjectES3_XadL_ZNS2_19LocalSlotObjectCompERKS3_S5_EEE5ClearEbPKcj @282
    _ZN14DataStructures11OrderedListIN6RakNet4RPC415LocalSlotObjectES3_XadL_ZNS2_19LocalSlotObjectCompERKS3_S5_EEE6InsertES5_S5_bPKcjPFiS5_S5_E @283
    _ZN14DataStructures11OrderedListIN6RakNet4RPC415LocalSlotObjectES3_XadL_ZNS2_19LocalSlotObjectCompERKS3_S5_EEEC1Ev @284
    _ZN14DataStructures11OrderedListIN6RakNet4RPC415LocalSlotObjectES3_XadL_ZNS2_19LocalSlotObjectCompERKS3_S5_EEED1Ev @285
    _ZN14DataStructures11OrderedListIN6RakNet7Router223ConnectionRequestSystemES3_XadL_Z27ConnectionRequestSystemCompRKS3_S5_EEE5ClearEbPKcj @286
    _ZN14DataStructures11OrderedListIN6RakNet7Router223ConnectionRequestSystemES3_XadL_Z27ConnectionRequestSystemCompRKS3_S5_EEE6InsertES5_S5_bPKcjPFiS5_S5_E @287
    _ZN14DataStructures11OrderedListIN6RakNet7Router223ConnectionRequestSystemES3_XadL_Z27ConnectionRequestSystemCompRKS3_S5_EEEC1Ev @288
    _ZN14DataStructures11OrderedListIN6RakNet7Router223ConnectionRequestSystemES3_XadL_Z27ConnectionRequestSystemCompRKS3_S5_EEED1Ev @289
    _ZN14DataStructures11OrderedListIN6RakNet8CloudKeyEPNS1_11CloudServer13CloudDataListEXadL_ZNS3_15KeyDataListCompERKS2_RKS5_EEE13InsertAtIndexES9_jPKcj @290
    _ZN14DataStructures11OrderedListIN6RakNet8CloudKeyEPNS1_11CloudServer13CloudDataListEXadL_ZNS3_15KeyDataListCompERKS2_RKS5_EEE13RemoveAtIndexEj @291
    _ZN14DataStructures11OrderedListIN6RakNet8CloudKeyEPNS1_11CloudServer13CloudDataListEXadL_ZNS3_15KeyDataListCompERKS2_RKS5_EEE5ClearEbPKcj @292
    _ZN14DataStructures11OrderedListIN6RakNet8CloudKeyEPNS1_11CloudServer13CloudDataListEXadL_ZNS3_15KeyDataListCompERKS2_RKS5_EEEC1Ev @293
    _ZN14DataStructures11OrderedListIN6RakNet8CloudKeyEPNS1_11CloudServer13CloudDataListEXadL_ZNS3_15KeyDataListCompERKS2_RKS5_EEED1Ev @294
    _ZN14DataStructures11OrderedListIN6RakNet8CloudKeyEPNS1_11CloudServer15KeySubscriberIDEXadL_ZNS3_19KeySubscriberIDCompERKS2_RKS5_EEE13InsertAtIndexES9_jPKcj @295
    _ZN14DataStructures11OrderedListIN6RakNet8CloudKeyEPNS1_11CloudServer15KeySubscriberIDEXadL_ZNS3_19KeySubscriberIDCompERKS2_RKS5_EEE13RemoveAtIndexEj @296
    _ZN14DataStructures11OrderedListIN6RakNet8CloudKeyEPNS1_11CloudServer15KeySubscriberIDEXadL_ZNS3_19KeySubscriberIDCompERKS2_RKS5_EEE5ClearEbPKcj @297
    _ZN14DataStructures11OrderedListIN6RakNet8CloudKeyEPNS1_11CloudServer15KeySubscriberIDEXadL_ZNS3_19KeySubscriberIDCompERKS2_RKS5_EEEC1Ev @298
    _ZN14DataStructures11OrderedListIN6RakNet8CloudKeyEPNS1_11CloudServer15KeySubscriberIDEXadL_ZNS3_19KeySubscriberIDCompERKS2_RKS5_EEED1Ev @299
    _ZN14DataStructures11OrderedListIN6RakNet8CloudKeyES2_XadL_ZNS1_12CloudKeyCompERKS2_S4_EEE13InsertAtIndexES4_jPKcj @300
    _ZN14DataStructures11OrderedListIN6RakNet8CloudKeyES2_XadL_ZNS1_12CloudKeyCompERKS2_S4_EEE13RemoveAtIndexEj @301
    _ZN14DataStructures11OrderedListIN6RakNet8CloudKeyES2_XadL_ZNS1_12CloudKeyCompERKS2_S4_EEE5ClearEbPKcj @302
    _ZN14DataStructures11OrderedListIN6RakNet8CloudKeyES2_XadL_ZNS1_12CloudKeyCompERKS2_S4_EEE6InsertES4_S4_bPKcjPFiS4_S4_E @303
    _ZN14DataStructures11OrderedListIN6RakNet8CloudKeyES2_XadL_ZNS1_12CloudKeyCompERKS2_S4_EEEC1Ev @304
    _ZN14DataStructures11OrderedListIN6RakNet8CloudKeyES2_XadL_ZNS1_12CloudKeyCompERKS2_S4_EEED1Ev @305
    _ZN14DataStructures11OrderedListIN6RakNet8TM_World17JoinRequestHelperES3_XadL_ZNS2_21JoinRequestHelperCompERKS3_S5_EEE5ClearEbPKcj @306
    _ZN14DataStructures11OrderedListIN6RakNet8TM_World17JoinRequestHelperES3_XadL_ZNS2_21JoinRequestHelperCompERKS3_S5_EEE6InsertES5_S5_bPKcjPFiS5_S5_E @307
    _ZN14DataStructures11OrderedListIN6RakNet8TM_World17JoinRequestHelperES3_XadL_ZNS2_21JoinRequestHelperCompERKS3_S5_EEEC1Ev @308
    _ZN14DataStructures11OrderedListIN6RakNet8TM_World17JoinRequestHelperES3_XadL_ZNS2_21JoinRequestHelperCompERKS3_S5_EEED1Ev @309
    _ZN14DataStructures11OrderedListIN6RakNet8uint24_tENS_9RangeNodeIS2_EEXadL_ZNS_13RangeNodeCompIS2_EEiRKT_RKNS3_IS6_EEEEE11InsertAtEndERKS4_PKcj @310
    _ZN14DataStructures11OrderedListIN6RakNet8uint24_tENS_9RangeNodeIS2_EEXadL_ZNS_13RangeNodeCompIS2_EEiRKT_RKNS3_IS6_EEEEE13InsertAtIndexERKS4_jPKcj @311
    _ZN14DataStructures11OrderedListIN6RakNet8uint24_tENS_9RangeNodeIS2_EEXadL_ZNS_13RangeNodeCompIS2_EEiRKT_RKNS3_IS6_EEEEE13RemoveAtIndexEj @312
    _ZN14DataStructures11OrderedListIN6RakNet8uint24_tENS_9RangeNodeIS2_EEXadL_ZNS_13RangeNodeCompIS2_EEiRKT_RKNS3_IS6_EEEEE13RemoveFromEndEj @313
    _ZN14DataStructures11OrderedListIN6RakNet8uint24_tENS_9RangeNodeIS2_EEXadL_ZNS_13RangeNodeCompIS2_EEiRKT_RKNS3_IS6_EEEEE5ClearEbPKcj @314
    _ZN14DataStructures11OrderedListIN6RakNet8uint24_tENS_9RangeNodeIS2_EEXadL_ZNS_13RangeNodeCompIS2_EEiRKT_RKNS3_IS6_EEEEE6InsertERKS2_RKS4_bPKcjPFiSE_SG_E @315
    _ZN14DataStructures11OrderedListIN6RakNet8uint24_tENS_9RangeNodeIS2_EEXadL_ZNS_13RangeNodeCompIS2_EEiRKT_RKNS3_IS6_EEEEEC1Ev @316
    _ZN14DataStructures11OrderedListIN6RakNet8uint24_tENS_9RangeNodeIS2_EEXadL_ZNS_13RangeNodeCompIS2_EEiRKT_RKNS3_IS6_EEEEED1Ev @317
    _ZN14DataStructures11OrderedListIN6RakNet9RakStringES2_XadL_ZNS_28defaultOrderedListComparisonIS2_S2_EEiRKT_RKT0_EEE13InsertAtIndexERKS2_jPKcj @318
    _ZN14DataStructures11OrderedListIN6RakNet9RakStringES2_XadL_ZNS_28defaultOrderedListComparisonIS2_S2_EEiRKT_RKT0_EEE13RemoveAtIndexEj @319
    _ZN14DataStructures11OrderedListIN6RakNet9RakStringES2_XadL_ZNS_28defaultOrderedListComparisonIS2_S2_EEiRKT_RKT0_EEE5ClearEbPKcj @320
    _ZN14DataStructures11OrderedListIN6RakNet9RakStringES2_XadL_ZNS_28defaultOrderedListComparisonIS2_S2_EEiRKT_RKT0_EEE6InsertERKS2_SC_bPKcjPFiSC_SC_E @321
    _ZN14DataStructures11OrderedListIN6RakNet9RakStringES2_XadL_ZNS_28defaultOrderedListComparisonIS2_S2_EEiRKT_RKT0_EEEC1Ev @322
    _ZN14DataStructures11OrderedListIN6RakNet9RakStringES2_XadL_ZNS_28defaultOrderedListComparisonIS2_S2_EEiRKT_RKT0_EEED1Ev @323
    _ZN14DataStructures11OrderedListIPKcN6RakNet17RegisteredCommandEXadL_ZNS3_21RegisteredCommandCompERKS2_RKS4_EEE5ClearEbS2_j @324
    _ZN14DataStructures11OrderedListIPKcN6RakNet17RegisteredCommandEXadL_ZNS3_21RegisteredCommandCompERKS2_RKS4_EEE6InsertES6_S8_bS2_jPFiS6_S8_E @325
    _ZN14DataStructures11OrderedListIPKcN6RakNet17RegisteredCommandEXadL_ZNS3_21RegisteredCommandCompERKS2_RKS4_EEEC1Ev @326
    _ZN14DataStructures11OrderedListIPKcN6RakNet17RegisteredCommandEXadL_ZNS3_21RegisteredCommandCompERKS2_RKS4_EEED1Ev @327
    _ZN14DataStructures11OrderedListIPN6RakNet17StatisticsHistory17TimeAndValueQueueES4_XadL_Z24TimeAndValueQueueCompAscRKS4_S6_EEE5ClearEbPKcj @328
    _ZN14DataStructures11OrderedListIPN6RakNet17StatisticsHistory17TimeAndValueQueueES4_XadL_Z24TimeAndValueQueueCompAscRKS4_S6_EEE6InsertES6_S6_bPKcjPFiS6_S6_E @329
    _ZN14DataStructures11OrderedListIPN6RakNet17StatisticsHistory17TimeAndValueQueueES4_XadL_Z24TimeAndValueQueueCompAscRKS4_S6_EEEC1Ev @330
    _ZN14DataStructures11OrderedListIPN6RakNet17StatisticsHistory17TimeAndValueQueueES4_XadL_Z24TimeAndValueQueueCompAscRKS4_S6_EEED1Ev @331
    _ZN14DataStructures11OrderedListIPN6RakNet19FullyConnectedMesh215FCM2ParticipantES4_XadL_Z19FCM2ParticipantCompRKS4_S6_EEE5ClearEbPKcj @332
    _ZN14DataStructures11OrderedListIPN6RakNet19FullyConnectedMesh215FCM2ParticipantES4_XadL_Z19FCM2ParticipantCompRKS4_S6_EEE6InsertES6_S6_bPKcjPFiS6_S6_E @333
    _ZN14DataStructures11OrderedListIPN6RakNet19FullyConnectedMesh215FCM2ParticipantES4_XadL_Z19FCM2ParticipantCompRKS4_S6_EEEC1Ev @334
    _ZN14DataStructures11OrderedListIPN6RakNet19FullyConnectedMesh215FCM2ParticipantES4_XadL_Z19FCM2ParticipantCompRKS4_S6_EEED1Ev @335
    _ZN14DataStructures11OrderedListIPN6RakNet8Replica3EPNS1_23LastSerializationResultEXadL_ZNS1_14Connection_RM315Replica3LSRCompERKS3_RKS5_EEE13RemoveAtIndexEj @336
    _ZN14DataStructures11OrderedListIPN6RakNet8Replica3EPNS1_23LastSerializationResultEXadL_ZNS1_14Connection_RM315Replica3LSRCompERKS3_RKS5_EEE5ClearEbPKcj @337
    _ZN14DataStructures11OrderedListIPN6RakNet8Replica3EPNS1_23LastSerializationResultEXadL_ZNS1_14Connection_RM315Replica3LSRCompERKS3_RKS5_EEE6InsertES8_SA_bPKcjPFiS8_SA_E @338
    _ZN14DataStructures11OrderedListIPN6RakNet8Replica3EPNS1_23LastSerializationResultEXadL_ZNS1_14Connection_RM315Replica3LSRCompERKS3_RKS5_EEEC1Ev @339
    _ZN14DataStructures11OrderedListIPN6RakNet8Replica3EPNS1_23LastSerializationResultEXadL_ZNS1_14Connection_RM315Replica3LSRCompERKS3_RKS5_EEED1Ev @340
    _ZN14DataStructures11OrderedListIPNS_5Table3RowES3_XadL_Z7RowSortRKS3_S5_EEE5ClearEbPKcj @341
    _ZN14DataStructures11OrderedListIPNS_5Table3RowES3_XadL_Z7RowSortRKS3_S5_EEE6InsertES5_S5_bPKcjPFiS5_S5_E @342
    _ZN14DataStructures11OrderedListIPNS_5Table3RowES3_XadL_Z7RowSortRKS3_S5_EEEC1Ev @343
    _ZN14DataStructures11OrderedListIPNS_5Table3RowES3_XadL_Z7RowSortRKS3_S5_EEED1Ev @344
    _ZN14DataStructures11OrderedListIPc10StrAndBoolXadL_ZN6RakNet14StrAndBoolCompERKS1_RKS2_EEE5ClearEbPKcj @345
    _ZN14DataStructures11OrderedListIPc10StrAndBoolXadL_ZN6RakNet14StrAndBoolCompERKS1_RKS2_EEE6InsertES5_S7_bPKcjPFiS5_S7_E @346
    _ZN14DataStructures11OrderedListIPc10StrAndBoolXadL_ZN6RakNet14StrAndBoolCompERKS1_RKS2_EEEC1Ev @347
    _ZN14DataStructures11OrderedListIPc10StrAndBoolXadL_ZN6RakNet14StrAndBoolCompERKS1_RKS2_EEED1Ev @348
    _ZN14DataStructures11OrderedListIhPN6RakNet4RPC413LocalCallbackEXadL_ZNS2_17LocalCallbackCompERKhRKS4_EEE13InsertAtIndexES8_jPKcj @349
    _ZN14DataStructures11OrderedListIhPN6RakNet4RPC413LocalCallbackEXadL_ZNS2_17LocalCallbackCompERKhRKS4_EEE13RemoveAtIndexEj @350
    _ZN14DataStructures11OrderedListIhPN6RakNet4RPC413LocalCallbackEXadL_ZNS2_17LocalCallbackCompERKhRKS4_EEE5ClearEbPKcj @351
    _ZN14DataStructures11OrderedListIhPN6RakNet4RPC413LocalCallbackEXadL_ZNS2_17LocalCallbackCompERKhRKS4_EEEC1Ev @352
    _ZN14DataStructures11OrderedListIhPN6RakNet4RPC413LocalCallbackEXadL_ZNS2_17LocalCallbackCompERKhRKS4_EEED1Ev @353
    _ZN14DataStructures11OrderedListIiNS_3MapIiPN6RakNet19HuffmanEncodingTreeEXadL_ZNS_23defaultMapKeyComparisonIiEEiRKT_S8_EEE7MapNodeEXadL_ZNS9_18NodeComparisonFuncERKiRKSA_EEE5ClearEbPKcj @354
    _ZN14DataStructures11OrderedListIiNS_3MapIiPN6RakNet19HuffmanEncodingTreeEXadL_ZNS_23defaultMapKeyComparisonIiEEiRKT_S8_EEE7MapNodeEXadL_ZNS9_18NodeComparisonFuncERKiRKSA_EEE6InsertESC_SE_bPKcjPFiSC_SE_E @355
    _ZN14DataStructures11OrderedListIiNS_3MapIiPN6RakNet19HuffmanEncodingTreeEXadL_ZNS_23defaultMapKeyComparisonIiEEiRKT_S8_EEE7MapNodeEXadL_ZNS9_18NodeComparisonFuncERKiRKSA_EEEC1Ev @356
    _ZN14DataStructures11OrderedListIiNS_3MapIiPN6RakNet19HuffmanEncodingTreeEXadL_ZNS_23defaultMapKeyComparisonIiEEiRKT_S8_EEE7MapNodeEXadL_ZNS9_18NodeComparisonFuncERKiRKSA_EEED1Ev @357
    _ZN14DataStructures11OrderedListIiPN6RakNet10ReadyEvent14ReadyEventNodeEXadL_ZNS2_18ReadyEventNodeCompERKiRKS4_EEE13RemoveAtIndexEj @358
    _ZN14DataStructures11OrderedListIiPN6RakNet10ReadyEvent14ReadyEventNodeEXadL_ZNS2_18ReadyEventNodeCompERKiRKS4_EEE5ClearEbPKcj @359
    _ZN14DataStructures11OrderedListIiPN6RakNet10ReadyEvent14ReadyEventNodeEXadL_ZNS2_18ReadyEventNodeCompERKiRKS4_EEE6InsertES6_S8_bPKcjPFiS6_S8_E @360
    _ZN14DataStructures11OrderedListIiPN6RakNet10ReadyEvent14ReadyEventNodeEXadL_ZNS2_18ReadyEventNodeCompERKiRKS4_EEEC1Ev @361
    _ZN14DataStructures11OrderedListIiPN6RakNet10ReadyEvent14ReadyEventNodeEXadL_ZNS2_18ReadyEventNodeCompERKiRKS4_EEED1Ev @362
    _ZN14DataStructures11OrderedListIiPN6RakNet9FilterSetEXadL_ZNS1_13FilterSetCompERKiRKS3_EEE13RemoveAtIndexEj @363
    _ZN14DataStructures11OrderedListIiPN6RakNet9FilterSetEXadL_ZNS1_13FilterSetCompERKiRKS3_EEE5ClearEbPKcj @364
    _ZN14DataStructures11OrderedListIiPN6RakNet9FilterSetEXadL_ZNS1_13FilterSetCompERKiRKS3_EEE6InsertES5_S7_bPKcjPFiS5_S7_E @365
    _ZN14DataStructures11OrderedListIiPN6RakNet9FilterSetEXadL_ZNS1_13FilterSetCompERKiRKS3_EEEC1Ev @366
    _ZN14DataStructures11OrderedListIiPN6RakNet9FilterSetEXadL_ZNS1_13FilterSetCompERKiRKS3_EEED1Ev @367
    _ZN14DataStructures11OrderedListIjNS_3MapIjN6RakNet15FLR_MemoryBlockEXadL_ZNS_23defaultMapKeyComparisonIjEEiRKT_S7_EEE7MapNodeEXadL_ZNS8_18NodeComparisonFuncERKjRKS9_EEE13RemoveAtIndexEj @368
    _ZN14DataStructures11OrderedListIjNS_3MapIjN6RakNet15FLR_MemoryBlockEXadL_ZNS_23defaultMapKeyComparisonIjEEiRKT_S7_EEE7MapNodeEXadL_ZNS8_18NodeComparisonFuncERKjRKS9_EEE5ClearEbPKcj @369
    _ZN14DataStructures11OrderedListIjNS_3MapIjN6RakNet15FLR_MemoryBlockEXadL_ZNS_23defaultMapKeyComparisonIjEEiRKT_S7_EEE7MapNodeEXadL_ZNS8_18NodeComparisonFuncERKjRKS9_EEE6InsertESB_SD_bPKcjPFiSB_SD_E @370
    _ZN14DataStructures11OrderedListIjNS_3MapIjN6RakNet15FLR_MemoryBlockEXadL_ZNS_23defaultMapKeyComparisonIjEEiRKT_S7_EEE7MapNodeEXadL_ZNS8_18NodeComparisonFuncERKjRKS9_EEEC1Ev @371
    _ZN14DataStructures11OrderedListIjNS_3MapIjN6RakNet15FLR_MemoryBlockEXadL_ZNS_23defaultMapKeyComparisonIjEEiRKT_S7_EEE7MapNodeEXadL_ZNS8_18NodeComparisonFuncERKjRKS9_EEED1Ev @372
    _ZN14DataStructures11OrderedListIjPN6RakNet11CloudServer10GetRequestEXadL_ZNS2_14GetRequestCompERKjRKS4_EEE13RemoveAtIndexEj @373
    _ZN14DataStructures11OrderedListIjPN6RakNet11CloudServer10GetRequestEXadL_ZNS2_14GetRequestCompERKjRKS4_EEE5ClearEbPKcj @374
    _ZN14DataStructures11OrderedListIjPN6RakNet11CloudServer10GetRequestEXadL_ZNS2_14GetRequestCompERKjRKS4_EEE6InsertES6_S8_bPKcjPFiS6_S8_E @375
    _ZN14DataStructures11OrderedListIjPN6RakNet11CloudServer10GetRequestEXadL_ZNS2_14GetRequestCompERKjRKS4_EEEC1Ev @376
    _ZN14DataStructures11OrderedListIjPN6RakNet11CloudServer10GetRequestEXadL_ZNS2_14GetRequestCompERKjRKS4_EEED1Ev @377
    _ZN14DataStructures11OrderedListIjPN6RakNet23VariableDeltaSerializer20ChangedVariablesListEXadL_ZNS2_27UpdatedVariablesListPtrCompERKjRKS4_EEE13RemoveAtIndexEj @378
    _ZN14DataStructures11OrderedListIjPN6RakNet23VariableDeltaSerializer20ChangedVariablesListEXadL_ZNS2_27UpdatedVariablesListPtrCompERKjRKS4_EEE5ClearEbPKcj @379
    _ZN14DataStructures11OrderedListIjPN6RakNet23VariableDeltaSerializer20ChangedVariablesListEXadL_ZNS2_27UpdatedVariablesListPtrCompERKjRKS4_EEE6InsertES6_S8_bPKcjPFiS6_S8_E @380
    _ZN14DataStructures11OrderedListIjPN6RakNet23VariableDeltaSerializer20ChangedVariablesListEXadL_ZNS2_27UpdatedVariablesListPtrCompERKjRKS4_EEEC1Ev @381
    _ZN14DataStructures11OrderedListIjPN6RakNet23VariableDeltaSerializer20ChangedVariablesListEXadL_ZNS2_27UpdatedVariablesListPtrCompERKjRKS4_EEED1Ev @382
    _ZN14DataStructures11OrderedListItN6RakNet19UDPProxyCoordinator14ServerWithPingEXadL_ZNS2_18ServerWithPingCompERKtRKS3_EEE5ClearEbPKcj @383
    _ZN14DataStructures11OrderedListItN6RakNet19UDPProxyCoordinator14ServerWithPingEXadL_ZNS2_18ServerWithPingCompERKtRKS3_EEE6InsertES5_S7_bPKcjPFiS5_S7_E @384
    _ZN14DataStructures11OrderedListItN6RakNet19UDPProxyCoordinator14ServerWithPingEXadL_ZNS2_18ServerWithPingCompERKtRKS3_EEEC1Ev @385
    _ZN14DataStructures11OrderedListItN6RakNet19UDPProxyCoordinator14ServerWithPingEXadL_ZNS2_18ServerWithPingCompERKtRKS3_EEED1Ev @386
    _ZN14DataStructures11OrderedListItNS_3MapItPN6RakNet16FileListReceiverEXadL_ZNS_23defaultMapKeyComparisonItEEiRKT_S8_EEE7MapNodeEXadL_ZNS9_18NodeComparisonFuncERKtRKSA_EEE13RemoveAtIndexEj @387
    _ZN14DataStructures11OrderedListItNS_3MapItPN6RakNet16FileListReceiverEXadL_ZNS_23defaultMapKeyComparisonItEEiRKT_S8_EEE7MapNodeEXadL_ZNS9_18NodeComparisonFuncERKtRKSA_EEE5ClearEbPKcj @388
    _ZN14DataStructures11OrderedListItNS_3MapItPN6RakNet16FileListReceiverEXadL_ZNS_23defaultMapKeyComparisonItEEiRKT_S8_EEE7MapNodeEXadL_ZNS9_18NodeComparisonFuncERKtRKSA_EEE6InsertESC_SE_bPKcjPFiSC_SE_E @389
    _ZN14DataStructures11OrderedListItNS_3MapItPN6RakNet16FileListReceiverEXadL_ZNS_23defaultMapKeyComparisonItEEiRKT_S8_EEE7MapNodeEXadL_ZNS9_18NodeComparisonFuncERKtRKSA_EEEC1Ev @390
    _ZN14DataStructures11OrderedListItNS_3MapItPN6RakNet16FileListReceiverEXadL_ZNS_23defaultMapKeyComparisonItEEiRKT_S8_EEE7MapNodeEXadL_ZNS9_18NodeComparisonFuncERKtRKSA_EEED1Ev @391
    _ZN14DataStructures11OrderedListItPN6RakNet18SplitPacketChannelEXadL_ZNS1_22SplitPacketChannelCompERKtRKS3_EEE13RemoveAtIndexEj @392
    _ZN14DataStructures11OrderedListItPN6RakNet18SplitPacketChannelEXadL_ZNS1_22SplitPacketChannelCompERKtRKS3_EEE5ClearEbPKcj @393
    _ZN14DataStructures11OrderedListItPN6RakNet18SplitPacketChannelEXadL_ZNS1_22SplitPacketChannelCompERKtRKS3_EEE6InsertES5_S7_bPKcjPFiS5_S7_E @394
    _ZN14DataStructures11OrderedListItPN6RakNet18SplitPacketChannelEXadL_ZNS1_22SplitPacketChannelCompERKtRKS3_EEEC1Ev @395
    _ZN14DataStructures11OrderedListItPN6RakNet18SplitPacketChannelEXadL_ZNS1_22SplitPacketChannelCompERKtRKS3_EEED1Ev @396
    _ZN14DataStructures11OrderedListIyPN6RakNet17StatisticsHistory13TrackedObjectEXadL_ZNS2_17TrackedObjectCompERKyRKS4_EEE13InsertAtIndexES8_jPKcj @397
    _ZN14DataStructures11OrderedListIyPN6RakNet17StatisticsHistory13TrackedObjectEXadL_ZNS2_17TrackedObjectCompERKyRKS4_EEE13RemoveAtIndexEj @398
    _ZN14DataStructures11OrderedListIyPN6RakNet17StatisticsHistory13TrackedObjectEXadL_ZNS2_17TrackedObjectCompERKyRKS4_EEE5ClearEbPKcj @399
    _ZN14DataStructures11OrderedListIyPN6RakNet17StatisticsHistory13TrackedObjectEXadL_ZNS2_17TrackedObjectCompERKyRKS4_EEEC1Ev @400
    _ZN14DataStructures11OrderedListIyPN6RakNet17StatisticsHistory13TrackedObjectEXadL_ZNS2_17TrackedObjectCompERKyRKS4_EEED1Ev @401
    _ZN14DataStructures13RangeNodeCompIN6RakNet8uint24_tEEEiRKT_RKNS_9RangeNodeIS3_EE @402
    _ZN14DataStructures18CircularLinkedListIP23HuffmanEncodingTreeNodeE3AddERKS2_ @403
    _ZN14DataStructures18CircularLinkedListIP23HuffmanEncodingTreeNodeE3DelEv @404
    _ZN14DataStructures18CircularLinkedListIP23HuffmanEncodingTreeNodeE3EndEv @405
    _ZN14DataStructures18CircularLinkedListIP23HuffmanEncodingTreeNodeE3PopEv @406
    _ZN14DataStructures18CircularLinkedListIP23HuffmanEncodingTreeNodeE4PeekEv @407
    _ZN14DataStructures18CircularLinkedListIP23HuffmanEncodingTreeNodeE4SizeEv @408
    _ZN14DataStructures18CircularLinkedListIP23HuffmanEncodingTreeNodeE5ClearEv @409
    _ZN14DataStructures18CircularLinkedListIP23HuffmanEncodingTreeNodeE6InsertERKS2_ @410
    _ZN14DataStructures18CircularLinkedListIP23HuffmanEncodingTreeNodeE9BeginningEv @411
    _ZN14DataStructures18CircularLinkedListIP23HuffmanEncodingTreeNodeEC2Ev @412
    _ZN14DataStructures18CircularLinkedListIP23HuffmanEncodingTreeNodeED2Ev @413
    _ZN14DataStructures22SingleProducerConsumerIPcE11DataPlusPtrC1Ev @414
    _ZN14DataStructures22SingleProducerConsumerIPcE11WriteUnlockEv @415
    _ZN14DataStructures22SingleProducerConsumerIPcE8ReadLockEv @416
    _ZN14DataStructures22SingleProducerConsumerIPcE9WriteLockEv @417
    _ZN14DataStructures22SingleProducerConsumerIPcEC1Ev @418
    _ZN14DataStructures22SingleProducerConsumerIPcED1Ev @419
    _ZN14DataStructures23defaultMapKeyComparisonIN6RakNet13SystemAddressEEEiRKT_S5_ @420
    _ZN14DataStructures23defaultMapKeyComparisonIiEEiRKT_S3_ @421
    _ZN14DataStructures23defaultMapKeyComparisonIjEEiRKT_S3_ @422
    _ZN14DataStructures23defaultMapKeyComparisonItEEiRKT_S3_ @423
    _ZN14DataStructures25ThreadsafeAllocatingQueueIN6RakNet12UDPForwarder20StopForwardingStructEE10DeallocateEPS3_PKcj @424
    _ZN14DataStructures25ThreadsafeAllocatingQueueIN6RakNet12UDPForwarder20StopForwardingStructEE11SetPageSizeEi @425
    _ZN14DataStructures25ThreadsafeAllocatingQueueIN6RakNet12UDPForwarder20StopForwardingStructEE3PopEv @426
    _ZN14DataStructures25ThreadsafeAllocatingQueueIN6RakNet12UDPForwarder20StopForwardingStructEE4PushEPS3_ @427
    _ZN14DataStructures25ThreadsafeAllocatingQueueIN6RakNet12UDPForwarder20StopForwardingStructEE8AllocateEPKcj @428
    _ZN14DataStructures25ThreadsafeAllocatingQueueIN6RakNet12UDPForwarder20StopForwardingStructEEC1Ev @429
    _ZN14DataStructures25ThreadsafeAllocatingQueueIN6RakNet12UDPForwarder20StopForwardingStructEED1Ev @430
    _ZN14DataStructures25ThreadsafeAllocatingQueueIN6RakNet12UDPForwarder26StartForwardingInputStructEE10DeallocateEPS3_PKcj @431
    _ZN14DataStructures25ThreadsafeAllocatingQueueIN6RakNet12UDPForwarder26StartForwardingInputStructEE11SetPageSizeEi @432
    _ZN14DataStructures25ThreadsafeAllocatingQueueIN6RakNet12UDPForwarder26StartForwardingInputStructEE3PopEv @433
    _ZN14DataStructures25ThreadsafeAllocatingQueueIN6RakNet12UDPForwarder26StartForwardingInputStructEE4PushEPS3_ @434
    _ZN14DataStructures25ThreadsafeAllocatingQueueIN6RakNet12UDPForwarder26StartForwardingInputStructEE8AllocateEPKcj @435
    _ZN14DataStructures25ThreadsafeAllocatingQueueIN6RakNet12UDPForwarder26StartForwardingInputStructEEC1Ev @436
    _ZN14DataStructures25ThreadsafeAllocatingQueueIN6RakNet12UDPForwarder26StartForwardingInputStructEED1Ev @437
    _ZN14DataStructures25ThreadsafeAllocatingQueueIN6RakNet13SystemAddressEE10DeallocateEPS2_PKcj @438
    _ZN14DataStructures25ThreadsafeAllocatingQueueIN6RakNet13SystemAddressEE13PopInaccurateEv @439
    _ZN14DataStructures25ThreadsafeAllocatingQueueIN6RakNet13SystemAddressEE4PushEPS2_ @440
    _ZN14DataStructures25ThreadsafeAllocatingQueueIN6RakNet13SystemAddressEE5ClearEPKcj @441
    _ZN14DataStructures25ThreadsafeAllocatingQueueIN6RakNet13SystemAddressEE8AllocateEPKcj @442
    _ZN14DataStructures25ThreadsafeAllocatingQueueIN6RakNet13SystemAddressEEC1Ev @443
    _ZN14DataStructures25ThreadsafeAllocatingQueueIN6RakNet13SystemAddressEED1Ev @444
    _ZN14DataStructures25ThreadsafeAllocatingQueueIN6RakNet6PacketEE10DeallocateEPS2_PKcj @445
    _ZN14DataStructures25ThreadsafeAllocatingQueueIN6RakNet6PacketEE13PopInaccurateEv @446
    _ZN14DataStructures25ThreadsafeAllocatingQueueIN6RakNet6PacketEE4PushEPS2_ @447
    _ZN14DataStructures25ThreadsafeAllocatingQueueIN6RakNet6PacketEE5ClearEPKcj @448
    _ZN14DataStructures25ThreadsafeAllocatingQueueIN6RakNet6PacketEE7IsEmptyEv @449
    _ZN14DataStructures25ThreadsafeAllocatingQueueIN6RakNet6PacketEE8AllocateEPKcj @450
    _ZN14DataStructures25ThreadsafeAllocatingQueueIN6RakNet6PacketEEC1Ev @451
    _ZN14DataStructures25ThreadsafeAllocatingQueueIN6RakNet6PacketEED1Ev @452
    _ZN14DataStructures25ThreadsafeAllocatingQueueIN6RakNet7RakPeer17SocketQueryOutputEE10DeallocateEPS3_PKcj @453
    _ZN14DataStructures25ThreadsafeAllocatingQueueIN6RakNet7RakPeer17SocketQueryOutputEE11SetPageSizeEi @454
    _ZN14DataStructures25ThreadsafeAllocatingQueueIN6RakNet7RakPeer17SocketQueryOutputEE3PopEv @455
    _ZN14DataStructures25ThreadsafeAllocatingQueueIN6RakNet7RakPeer17SocketQueryOutputEE4PushEPS3_ @456
    _ZN14DataStructures25ThreadsafeAllocatingQueueIN6RakNet7RakPeer17SocketQueryOutputEE5ClearEPKcj @457
    _ZN14DataStructures25ThreadsafeAllocatingQueueIN6RakNet7RakPeer17SocketQueryOutputEE8AllocateEPKcj @458
    _ZN14DataStructures25ThreadsafeAllocatingQueueIN6RakNet7RakPeer17SocketQueryOutputEEC1Ev @459
    _ZN14DataStructures25ThreadsafeAllocatingQueueIN6RakNet7RakPeer17SocketQueryOutputEED1Ev @460
    _ZN14DataStructures25ThreadsafeAllocatingQueueIN6RakNet7RakPeer21BufferedCommandStructEE10DeallocateEPS3_PKcj @461
    _ZN14DataStructures25ThreadsafeAllocatingQueueIN6RakNet7RakPeer21BufferedCommandStructEE11SetPageSizeEi @462
    _ZN14DataStructures25ThreadsafeAllocatingQueueIN6RakNet7RakPeer21BufferedCommandStructEE13PopInaccurateEv @463
    _ZN14DataStructures25ThreadsafeAllocatingQueueIN6RakNet7RakPeer21BufferedCommandStructEE3PopEv @464
    _ZN14DataStructures25ThreadsafeAllocatingQueueIN6RakNet7RakPeer21BufferedCommandStructEE4PushEPS3_ @465
    _ZN14DataStructures25ThreadsafeAllocatingQueueIN6RakNet7RakPeer21BufferedCommandStructEE5ClearEPKcj @466
    _ZN14DataStructures25ThreadsafeAllocatingQueueIN6RakNet7RakPeer21BufferedCommandStructEE8AllocateEPKcj @467
    _ZN14DataStructures25ThreadsafeAllocatingQueueIN6RakNet7RakPeer21BufferedCommandStructEEC1Ev @468
    _ZN14DataStructures25ThreadsafeAllocatingQueueIN6RakNet7RakPeer21BufferedCommandStructEED1Ev @469
    _ZN14DataStructures25ThreadsafeAllocatingQueueIPN6RakNet12RemoteClientEE5ClearEPKcj @470
    _ZN14DataStructures25ThreadsafeAllocatingQueueIPN6RakNet12RemoteClientEEC1Ev @471
    _ZN14DataStructures25ThreadsafeAllocatingQueueIPN6RakNet12RemoteClientEED1Ev @472
    _ZN14DataStructures28defaultOrderedListComparisonIN6RakNet10RakNetGUIDES2_EEiRKT_RKT0_ @473
    _ZN14DataStructures28defaultOrderedListComparisonIN6RakNet13SystemAddressES2_EEiRKT_RKT0_ @474
    _ZN14DataStructures28defaultOrderedListComparisonIN6RakNet9RakStringES2_EEiRKT_RKT0_ @475
    _ZN14DataStructures3MapIN6RakNet13SystemAddressEPNS_9ByteQueueEXadL_ZNS_23defaultMapKeyComparisonIS2_EEiRKT_S8_EEE13GetIndexAtKeyERKS2_ @476
    _ZN14DataStructures3MapIN6RakNet13SystemAddressEPNS_9ByteQueueEXadL_ZNS_23defaultMapKeyComparisonIS2_EEiRKT_S8_EEE13RemoveAtIndexEj @477
    _ZN14DataStructures3MapIN6RakNet13SystemAddressEPNS_9ByteQueueEXadL_ZNS_23defaultMapKeyComparisonIS2_EEiRKT_S8_EEE18NodeComparisonFuncERKS2_RKNS9_7MapNodeE @478
    _ZN14DataStructures3MapIN6RakNet13SystemAddressEPNS_9ByteQueueEXadL_ZNS_23defaultMapKeyComparisonIS2_EEiRKT_S8_EEE5ClearEv @479
    _ZN14DataStructures3MapIN6RakNet13SystemAddressEPNS_9ByteQueueEXadL_ZNS_23defaultMapKeyComparisonIS2_EEiRKT_S8_EEE6SetNewERKS2_RKS4_ @480
    _ZN14DataStructures3MapIN6RakNet13SystemAddressEPNS_9ByteQueueEXadL_ZNS_23defaultMapKeyComparisonIS2_EEiRKT_S8_EEE7MapNodeC1ES2_S4_ @481
    _ZN14DataStructures3MapIN6RakNet13SystemAddressEPNS_9ByteQueueEXadL_ZNS_23defaultMapKeyComparisonIS2_EEiRKT_S8_EEE7MapNodeC1Ev @482
    _ZN14DataStructures3MapIN6RakNet13SystemAddressEPNS_9ByteQueueEXadL_ZNS_23defaultMapKeyComparisonIS2_EEiRKT_S8_EEE7MapNodeaSERKSA_ @483
    _ZN14DataStructures3MapIN6RakNet13SystemAddressEPNS_9ByteQueueEXadL_ZNS_23defaultMapKeyComparisonIS2_EEiRKT_S8_EEEC1Ev @484
    _ZN14DataStructures3MapIN6RakNet13SystemAddressEPNS_9ByteQueueEXadL_ZNS_23defaultMapKeyComparisonIS2_EEiRKT_S8_EEED1Ev @485
    _ZN14DataStructures3MapIiPN6RakNet19HuffmanEncodingTreeEXadL_ZNS_23defaultMapKeyComparisonIiEEiRKT_S7_EEE18NodeComparisonFuncERKiRKNS8_7MapNodeE @486
    _ZN14DataStructures3MapIiPN6RakNet19HuffmanEncodingTreeEXadL_ZNS_23defaultMapKeyComparisonIiEEiRKT_S7_EEE28IMPLEMENT_DEFAULT_COMPARISONEv @487
    _ZN14DataStructures3MapIiPN6RakNet19HuffmanEncodingTreeEXadL_ZNS_23defaultMapKeyComparisonIiEEiRKT_S7_EEE3SetERKiRKS3_ @488
    _ZN14DataStructures3MapIiPN6RakNet19HuffmanEncodingTreeEXadL_ZNS_23defaultMapKeyComparisonIiEEiRKT_S7_EEE5ClearEv @489
    _ZN14DataStructures3MapIiPN6RakNet19HuffmanEncodingTreeEXadL_ZNS_23defaultMapKeyComparisonIiEEiRKT_S7_EEE7MapNodeC1EiS3_ @490
    _ZN14DataStructures3MapIiPN6RakNet19HuffmanEncodingTreeEXadL_ZNS_23defaultMapKeyComparisonIiEEiRKT_S7_EEE7MapNodeC1Ev @491
    _ZN14DataStructures3MapIiPN6RakNet19HuffmanEncodingTreeEXadL_ZNS_23defaultMapKeyComparisonIiEEiRKT_S7_EEE7MapNodeaSERKS9_ @492
    _ZN14DataStructures3MapIiPN6RakNet19HuffmanEncodingTreeEXadL_ZNS_23defaultMapKeyComparisonIiEEiRKT_S7_EEEC1Ev @493
    _ZN14DataStructures3MapIiPN6RakNet19HuffmanEncodingTreeEXadL_ZNS_23defaultMapKeyComparisonIiEEiRKT_S7_EEED1Ev @494
    _ZN14DataStructures3MapIjN6RakNet15FLR_MemoryBlockEXadL_ZNS_23defaultMapKeyComparisonIjEEiRKT_S6_EEE18NodeComparisonFuncERKjRKNS7_7MapNodeE @495
    _ZN14DataStructures3MapIjN6RakNet15FLR_MemoryBlockEXadL_ZNS_23defaultMapKeyComparisonIjEEiRKT_S6_EEE28IMPLEMENT_DEFAULT_COMPARISONEv @496
    _ZN14DataStructures3MapIjN6RakNet15FLR_MemoryBlockEXadL_ZNS_23defaultMapKeyComparisonIjEEiRKT_S6_EEE5ClearEv @497
    _ZN14DataStructures3MapIjN6RakNet15FLR_MemoryBlockEXadL_ZNS_23defaultMapKeyComparisonIjEEiRKT_S6_EEE6DeleteERKj @498
    _ZN14DataStructures3MapIjN6RakNet15FLR_MemoryBlockEXadL_ZNS_23defaultMapKeyComparisonIjEEiRKT_S6_EEE6SetNewERKjRKS2_ @499
    _ZN14DataStructures3MapIjN6RakNet15FLR_MemoryBlockEXadL_ZNS_23defaultMapKeyComparisonIjEEiRKT_S6_EEE7MapNodeC1EjS2_ @500
    _ZN14DataStructures3MapIjN6RakNet15FLR_MemoryBlockEXadL_ZNS_23defaultMapKeyComparisonIjEEiRKT_S6_EEE7MapNodeC1Ev @501
    _ZN14DataStructures3MapIjN6RakNet15FLR_MemoryBlockEXadL_ZNS_23defaultMapKeyComparisonIjEEiRKT_S6_EEE7MapNodeaSERKS8_ @502
    _ZN14DataStructures3MapIjN6RakNet15FLR_MemoryBlockEXadL_ZNS_23defaultMapKeyComparisonIjEEiRKT_S6_EEEC1Ev @503
    _ZN14DataStructures3MapIjN6RakNet15FLR_MemoryBlockEXadL_ZNS_23defaultMapKeyComparisonIjEEiRKT_S6_EEED1Ev @504
    _ZN14DataStructures3MapItPN6RakNet16FileListReceiverEXadL_ZNS_23defaultMapKeyComparisonItEEiRKT_S7_EEE13RemoveAtIndexEj @505
    _ZN14DataStructures3MapItPN6RakNet16FileListReceiverEXadL_ZNS_23defaultMapKeyComparisonItEEiRKT_S7_EEE18NodeComparisonFuncERKtRKNS8_7MapNodeE @506
    _ZN14DataStructures3MapItPN6RakNet16FileListReceiverEXadL_ZNS_23defaultMapKeyComparisonItEEiRKT_S7_EEE28IMPLEMENT_DEFAULT_COMPARISONEv @507
    _ZN14DataStructures3MapItPN6RakNet16FileListReceiverEXadL_ZNS_23defaultMapKeyComparisonItEEiRKT_S7_EEE3SetERKtRKS3_ @508
    _ZN14DataStructures3MapItPN6RakNet16FileListReceiverEXadL_ZNS_23defaultMapKeyComparisonItEEiRKT_S7_EEE5ClearEv @509
    _ZN14DataStructures3MapItPN6RakNet16FileListReceiverEXadL_ZNS_23defaultMapKeyComparisonItEEiRKT_S7_EEE6DeleteERKt @510
    _ZN14DataStructures3MapItPN6RakNet16FileListReceiverEXadL_ZNS_23defaultMapKeyComparisonItEEiRKT_S7_EEE7MapNodeC1EtS3_ @511
    _ZN14DataStructures3MapItPN6RakNet16FileListReceiverEXadL_ZNS_23defaultMapKeyComparisonItEEiRKT_S7_EEE7MapNodeC1Ev @512
    _ZN14DataStructures3MapItPN6RakNet16FileListReceiverEXadL_ZNS_23defaultMapKeyComparisonItEEiRKT_S7_EEE7MapNodeaSERKS9_ @513
    _ZN14DataStructures3MapItPN6RakNet16FileListReceiverEXadL_ZNS_23defaultMapKeyComparisonItEEiRKT_S7_EEEC1Ev @514
    _ZN14DataStructures3MapItPN6RakNet16FileListReceiverEXadL_ZNS_23defaultMapKeyComparisonItEEiRKT_S7_EEED1Ev @515
    _ZN14DataStructures4HashIN6RakNet10RakNetGUIDEPNS1_11CloudServer17RemoteCloudClientELj2048EXadL_ZNS2_8ToUint32ERKS2_EEE10ClearIndexEjPKcj @516
    _ZN14DataStructures4HashIN6RakNet10RakNetGUIDEPNS1_11CloudServer17RemoteCloudClientELj2048EXadL_ZNS2_8ToUint32ERKS2_EEE10GetIndexOfES2_ @517
    _ZN14DataStructures4HashIN6RakNet10RakNetGUIDEPNS1_11CloudServer17RemoteCloudClientELj2048EXadL_ZNS2_8ToUint32ERKS2_EEE11ItemAtIndexERKNS_9HashIndexE @518
    _ZN14DataStructures4HashIN6RakNet10RakNetGUIDEPNS1_11CloudServer17RemoteCloudClientELj2048EXadL_ZNS2_8ToUint32ERKS2_EEE13RemoveAtIndexENS_9HashIndexEPKcj @519
    _ZN14DataStructures4HashIN6RakNet10RakNetGUIDEPNS1_11CloudServer17RemoteCloudClientELj2048EXadL_ZNS2_8ToUint32ERKS2_EEE4NodeC1ES2_RKS5_ @520
    _ZN14DataStructures4HashIN6RakNet10RakNetGUIDEPNS1_11CloudServer17RemoteCloudClientELj2048EXadL_ZNS2_8ToUint32ERKS2_EEE4PushES2_RKS5_PKcj @521
    _ZN14DataStructures4HashIN6RakNet10RakNetGUIDEPNS1_11CloudServer17RemoteCloudClientELj2048EXadL_ZNS2_8ToUint32ERKS2_EEE5ClearEPKcj @522
    _ZN14DataStructures4HashIN6RakNet10RakNetGUIDEPNS1_11CloudServer17RemoteCloudClientELj2048EXadL_ZNS2_8ToUint32ERKS2_EEE6RemoveES2_PKcj @523
    _ZN14DataStructures4HashIN6RakNet10RakNetGUIDEPNS1_11CloudServer17RemoteCloudClientELj2048EXadL_ZNS2_8ToUint32ERKS2_EEEC1Ev @524
    _ZN14DataStructures4HashIN6RakNet10RakNetGUIDEPNS1_11CloudServer17RemoteCloudClientELj2048EXadL_ZNS2_8ToUint32ERKS2_EEED1Ev @525
    _ZN14DataStructures4HashIN6RakNet10RakNetGUIDEPNS1_11RelayPlugin17StrAndGuidAndRoomELj8096EXadL_ZNS2_8ToUint32ERKS2_EEE10ClearIndexEjPKcj @526
    _ZN14DataStructures4HashIN6RakNet10RakNetGUIDEPNS1_11RelayPlugin17StrAndGuidAndRoomELj8096EXadL_ZNS2_8ToUint32ERKS2_EEE3PopERS5_S2_PKcj @527
    _ZN14DataStructures4HashIN6RakNet10RakNetGUIDEPNS1_11RelayPlugin17StrAndGuidAndRoomELj8096EXadL_ZNS2_8ToUint32ERKS2_EEE4NodeC1ES2_RKS5_ @528
    _ZN14DataStructures4HashIN6RakNet10RakNetGUIDEPNS1_11RelayPlugin17StrAndGuidAndRoomELj8096EXadL_ZNS2_8ToUint32ERKS2_EEE4PeekES2_ @529
    _ZN14DataStructures4HashIN6RakNet10RakNetGUIDEPNS1_11RelayPlugin17StrAndGuidAndRoomELj8096EXadL_ZNS2_8ToUint32ERKS2_EEE4PushES2_RKS5_PKcj @530
    _ZN14DataStructures4HashIN6RakNet10RakNetGUIDEPNS1_11RelayPlugin17StrAndGuidAndRoomELj8096EXadL_ZNS2_8ToUint32ERKS2_EEE5ClearEPKcj @531
    _ZN14DataStructures4HashIN6RakNet10RakNetGUIDEPNS1_11RelayPlugin17StrAndGuidAndRoomELj8096EXadL_ZNS2_8ToUint32ERKS2_EEEC1Ev @532
    _ZN14DataStructures4HashIN6RakNet10RakNetGUIDEPNS1_11RelayPlugin17StrAndGuidAndRoomELj8096EXadL_ZNS2_8ToUint32ERKS2_EEED1Ev @533
    _ZN14DataStructures4HashIN6RakNet13AddressOrGUIDENS1_14FilteredSystemELj2048EXadL_ZNS2_9ToIntegerERKS2_EEE10ClearIndexEjPKcj @534
    _ZN14DataStructures4HashIN6RakNet13AddressOrGUIDENS1_14FilteredSystemELj2048EXadL_ZNS2_9ToIntegerERKS2_EEE10GetIndexOfES2_ @535
    _ZN14DataStructures4HashIN6RakNet13AddressOrGUIDENS1_14FilteredSystemELj2048EXadL_ZNS2_9ToIntegerERKS2_EEE11ItemAtIndexERKNS_9HashIndexE @536
    _ZN14DataStructures4HashIN6RakNet13AddressOrGUIDENS1_14FilteredSystemELj2048EXadL_ZNS2_9ToIntegerERKS2_EEE13RemoveAtIndexENS_9HashIndexEPKcj @537
    _ZN14DataStructures4HashIN6RakNet13AddressOrGUIDENS1_14FilteredSystemELj2048EXadL_ZNS2_9ToIntegerERKS2_EEE4NodeC1ES2_RKS3_ @538
    _ZN14DataStructures4HashIN6RakNet13AddressOrGUIDENS1_14FilteredSystemELj2048EXadL_ZNS2_9ToIntegerERKS2_EEE4PushES2_RKS3_PKcj @539
    _ZN14DataStructures4HashIN6RakNet13AddressOrGUIDENS1_14FilteredSystemELj2048EXadL_ZNS2_9ToIntegerERKS2_EEE5ClearEPKcj @540
    _ZN14DataStructures4HashIN6RakNet13AddressOrGUIDENS1_14FilteredSystemELj2048EXadL_ZNS2_9ToIntegerERKS2_EEE6RemoveES2_PKcj @541
    _ZN14DataStructures4HashIN6RakNet13AddressOrGUIDENS1_14FilteredSystemELj2048EXadL_ZNS2_9ToIntegerERKS2_EEE7HasDataES2_ @542
    _ZN14DataStructures4HashIN6RakNet13AddressOrGUIDENS1_14FilteredSystemELj2048EXadL_ZNS2_9ToIntegerERKS2_EEEC1Ev @543
    _ZN14DataStructures4HashIN6RakNet13AddressOrGUIDENS1_14FilteredSystemELj2048EXadL_ZNS2_9ToIntegerERKS2_EEED1Ev @544
    _ZN14DataStructures4HashIN6RakNet9RakStringEPFvPNS1_9BitStreamEPNS1_6PacketEELj64EXadL_ZNS2_9ToIntegerERKS2_EEE10ClearIndexEjPKcj @545
    _ZN14DataStructures4HashIN6RakNet9RakStringEPFvPNS1_9BitStreamEPNS1_6PacketEELj64EXadL_ZNS2_9ToIntegerERKS2_EEE10GetIndexOfES2_ @546
    _ZN14DataStructures4HashIN6RakNet9RakStringEPFvPNS1_9BitStreamEPNS1_6PacketEELj64EXadL_ZNS2_9ToIntegerERKS2_EEE11ItemAtIndexERKNS_9HashIndexE @547
    _ZN14DataStructures4HashIN6RakNet9RakStringEPFvPNS1_9BitStreamEPNS1_6PacketEELj64EXadL_ZNS2_9ToIntegerERKS2_EEE3PopERS8_S2_PKcj @548
    _ZN14DataStructures4HashIN6RakNet9RakStringEPFvPNS1_9BitStreamEPNS1_6PacketEELj64EXadL_ZNS2_9ToIntegerERKS2_EEE4NodeC1ES2_RKS8_ @549
    _ZN14DataStructures4HashIN6RakNet9RakStringEPFvPNS1_9BitStreamEPNS1_6PacketEELj64EXadL_ZNS2_9ToIntegerERKS2_EEE4NodeD1Ev @550
    _ZN14DataStructures4HashIN6RakNet9RakStringEPFvPNS1_9BitStreamEPNS1_6PacketEELj64EXadL_ZNS2_9ToIntegerERKS2_EEE4PushES2_RKS8_PKcj @551
    _ZN14DataStructures4HashIN6RakNet9RakStringEPFvPNS1_9BitStreamEPNS1_6PacketEELj64EXadL_ZNS2_9ToIntegerERKS2_EEE5ClearEPKcj @552
    _ZN14DataStructures4HashIN6RakNet9RakStringEPFvPNS1_9BitStreamEPNS1_6PacketEELj64EXadL_ZNS2_9ToIntegerERKS2_EEEC1Ev @553
    _ZN14DataStructures4HashIN6RakNet9RakStringEPFvPNS1_9BitStreamEPNS1_6PacketEELj64EXadL_ZNS2_9ToIntegerERKS2_EEED1Ev @554
    _ZN14DataStructures4HashIN6RakNet9RakStringEPFvPNS1_9BitStreamES4_PNS1_6PacketEELj64EXadL_ZNS2_9ToIntegerERKS2_EEE10ClearIndexEjPKcj @555
    _ZN14DataStructures4HashIN6RakNet9RakStringEPFvPNS1_9BitStreamES4_PNS1_6PacketEELj64EXadL_ZNS2_9ToIntegerERKS2_EEE10GetIndexOfES2_ @556
    _ZN14DataStructures4HashIN6RakNet9RakStringEPFvPNS1_9BitStreamES4_PNS1_6PacketEELj64EXadL_ZNS2_9ToIntegerERKS2_EEE11ItemAtIndexERKNS_9HashIndexE @557
    _ZN14DataStructures4HashIN6RakNet9RakStringEPFvPNS1_9BitStreamES4_PNS1_6PacketEELj64EXadL_ZNS2_9ToIntegerERKS2_EEE3PopERS8_S2_PKcj @558
    _ZN14DataStructures4HashIN6RakNet9RakStringEPFvPNS1_9BitStreamES4_PNS1_6PacketEELj64EXadL_ZNS2_9ToIntegerERKS2_EEE4NodeC1ES2_RKS8_ @559
    _ZN14DataStructures4HashIN6RakNet9RakStringEPFvPNS1_9BitStreamES4_PNS1_6PacketEELj64EXadL_ZNS2_9ToIntegerERKS2_EEE4NodeD1Ev @560
    _ZN14DataStructures4HashIN6RakNet9RakStringEPFvPNS1_9BitStreamES4_PNS1_6PacketEELj64EXadL_ZNS2_9ToIntegerERKS2_EEE4PushES2_RKS8_PKcj @561
    _ZN14DataStructures4HashIN6RakNet9RakStringEPFvPNS1_9BitStreamES4_PNS1_6PacketEELj64EXadL_ZNS2_9ToIntegerERKS2_EEE5ClearEPKcj @562
    _ZN14DataStructures4HashIN6RakNet9RakStringEPFvPNS1_9BitStreamES4_PNS1_6PacketEELj64EXadL_ZNS2_9ToIntegerERKS2_EEEC1Ev @563
    _ZN14DataStructures4HashIN6RakNet9RakStringEPFvPNS1_9BitStreamES4_PNS1_6PacketEELj64EXadL_ZNS2_9ToIntegerERKS2_EEED1Ev @564
    _ZN14DataStructures4HashIN6RakNet9RakStringEPNS1_11RelayPlugin17StrAndGuidAndRoomELj8096EXadL_ZNS2_9ToIntegerERKS2_EEE10ClearIndexEjPKcj @565
    _ZN14DataStructures4HashIN6RakNet9RakStringEPNS1_11RelayPlugin17StrAndGuidAndRoomELj8096EXadL_ZNS2_9ToIntegerERKS2_EEE10GetIndexOfES2_ @566
    _ZN14DataStructures4HashIN6RakNet9RakStringEPNS1_11RelayPlugin17StrAndGuidAndRoomELj8096EXadL_ZNS2_9ToIntegerERKS2_EEE13RemoveAtIndexENS_9HashIndexEPKcj @567
    _ZN14DataStructures4HashIN6RakNet9RakStringEPNS1_11RelayPlugin17StrAndGuidAndRoomELj8096EXadL_ZNS2_9ToIntegerERKS2_EEE4NodeC1ES2_RKS5_ @568
    _ZN14DataStructures4HashIN6RakNet9RakStringEPNS1_11RelayPlugin17StrAndGuidAndRoomELj8096EXadL_ZNS2_9ToIntegerERKS2_EEE4NodeD1Ev @569
    _ZN14DataStructures4HashIN6RakNet9RakStringEPNS1_11RelayPlugin17StrAndGuidAndRoomELj8096EXadL_ZNS2_9ToIntegerERKS2_EEE4PeekES2_ @570
    _ZN14DataStructures4HashIN6RakNet9RakStringEPNS1_11RelayPlugin17StrAndGuidAndRoomELj8096EXadL_ZNS2_9ToIntegerERKS2_EEE4PushES2_RKS5_PKcj @571
    _ZN14DataStructures4HashIN6RakNet9RakStringEPNS1_11RelayPlugin17StrAndGuidAndRoomELj8096EXadL_ZNS2_9ToIntegerERKS2_EEE5ClearEPKcj @572
    _ZN14DataStructures4HashIN6RakNet9RakStringEPNS1_11RelayPlugin17StrAndGuidAndRoomELj8096EXadL_ZNS2_9ToIntegerERKS2_EEE6RemoveES2_PKcj @573
    _ZN14DataStructures4HashIN6RakNet9RakStringEPNS1_11RelayPlugin17StrAndGuidAndRoomELj8096EXadL_ZNS2_9ToIntegerERKS2_EEE7HasDataES2_ @574
    _ZN14DataStructures4HashIN6RakNet9RakStringEPNS1_11RelayPlugin17StrAndGuidAndRoomELj8096EXadL_ZNS2_9ToIntegerERKS2_EEEC1Ev @575
    _ZN14DataStructures4HashIN6RakNet9RakStringEPNS1_11RelayPlugin17StrAndGuidAndRoomELj8096EXadL_ZNS2_9ToIntegerERKS2_EEED1Ev @576
    _ZN14DataStructures4HashIN6RakNet9RakStringEPNS1_17StatisticsHistory17TimeAndValueQueueELj32EXadL_ZNS2_9ToIntegerERKS2_EEE10ClearIndexEjPKcj @577
    _ZN14DataStructures4HashIN6RakNet9RakStringEPNS1_17StatisticsHistory17TimeAndValueQueueELj32EXadL_ZNS2_9ToIntegerERKS2_EEE10GetIndexOfES2_ @578
    _ZN14DataStructures4HashIN6RakNet9RakStringEPNS1_17StatisticsHistory17TimeAndValueQueueELj32EXadL_ZNS2_9ToIntegerERKS2_EEE11ItemAtIndexERKNS_9HashIndexE @579
    _ZN14DataStructures4HashIN6RakNet9RakStringEPNS1_17StatisticsHistory17TimeAndValueQueueELj32EXadL_ZNS2_9ToIntegerERKS2_EEE4NodeC1ES2_RKS5_ @580
    _ZN14DataStructures4HashIN6RakNet9RakStringEPNS1_17StatisticsHistory17TimeAndValueQueueELj32EXadL_ZNS2_9ToIntegerERKS2_EEE4NodeD1Ev @581
    _ZN14DataStructures4HashIN6RakNet9RakStringEPNS1_17StatisticsHistory17TimeAndValueQueueELj32EXadL_ZNS2_9ToIntegerERKS2_EEE4PushES2_RKS5_PKcj @582
    _ZN14DataStructures4HashIN6RakNet9RakStringEPNS1_17StatisticsHistory17TimeAndValueQueueELj32EXadL_ZNS2_9ToIntegerERKS2_EEE5ClearEPKcj @583
    _ZN14DataStructures4HashIN6RakNet9RakStringEPNS1_17StatisticsHistory17TimeAndValueQueueELj32EXadL_ZNS2_9ToIntegerERKS2_EEEC1Ev @584
    _ZN14DataStructures4HashIN6RakNet9RakStringEPNS1_17StatisticsHistory17TimeAndValueQueueELj32EXadL_ZNS2_9ToIntegerERKS2_EEED1Ev @585
    _ZN14DataStructures4HashIN6RakNet9RakStringEPNS1_4RPC49LocalSlotELj256EXadL_ZNS2_9ToIntegerERKS2_EEE10ClearIndexEjPKcj @586
    _ZN14DataStructures4HashIN6RakNet9RakStringEPNS1_4RPC49LocalSlotELj256EXadL_ZNS2_9ToIntegerERKS2_EEE10GetIndexOfES2_ @587
    _ZN14DataStructures4HashIN6RakNet9RakStringEPNS1_4RPC49LocalSlotELj256EXadL_ZNS2_9ToIntegerERKS2_EEE11ItemAtIndexERKNS_9HashIndexE @588
    _ZN14DataStructures4HashIN6RakNet9RakStringEPNS1_4RPC49LocalSlotELj256EXadL_ZNS2_9ToIntegerERKS2_EEE13RemoveAtIndexENS_9HashIndexEPKcj @589
    _ZN14DataStructures4HashIN6RakNet9RakStringEPNS1_4RPC49LocalSlotELj256EXadL_ZNS2_9ToIntegerERKS2_EEE4NodeC1ES2_RKS5_ @590
    _ZN14DataStructures4HashIN6RakNet9RakStringEPNS1_4RPC49LocalSlotELj256EXadL_ZNS2_9ToIntegerERKS2_EEE4NodeD1Ev @591
    _ZN14DataStructures4HashIN6RakNet9RakStringEPNS1_4RPC49LocalSlotELj256EXadL_ZNS2_9ToIntegerERKS2_EEE4PushES2_RKS5_PKcj @592
    _ZN14DataStructures4HashIN6RakNet9RakStringEPNS1_4RPC49LocalSlotELj256EXadL_ZNS2_9ToIntegerERKS2_EEE5ClearEPKcj @593
    _ZN14DataStructures4HashIN6RakNet9RakStringEPNS1_4RPC49LocalSlotELj256EXadL_ZNS2_9ToIntegerERKS2_EEEC1Ev @594
    _ZN14DataStructures4HashIN6RakNet9RakStringEPNS1_4RPC49LocalSlotELj256EXadL_ZNS2_9ToIntegerERKS2_EEED1Ev @595
    _ZN14DataStructures4HashIN6RakNet9RakStringES2_Lj16EXadL_ZNS2_9ToIntegerERKS2_EEE10ClearIndexEjPKcj @596
    _ZN14DataStructures4HashIN6RakNet9RakStringES2_Lj16EXadL_ZNS2_9ToIntegerERKS2_EEE10GetIndexOfES2_ @597
    _ZN14DataStructures4HashIN6RakNet9RakStringES2_Lj16EXadL_ZNS2_9ToIntegerERKS2_EEE11ItemAtIndexERKNS_9HashIndexE @598
    _ZN14DataStructures4HashIN6RakNet9RakStringES2_Lj16EXadL_ZNS2_9ToIntegerERKS2_EEE4NodeC1ES2_S4_ @599
    _ZN14DataStructures4HashIN6RakNet9RakStringES2_Lj16EXadL_ZNS2_9ToIntegerERKS2_EEE4NodeD1Ev @600
    _ZN14DataStructures4HashIN6RakNet9RakStringES2_Lj16EXadL_ZNS2_9ToIntegerERKS2_EEE4PushES2_S4_PKcj @601
    _ZN14DataStructures4HashIN6RakNet9RakStringES2_Lj16EXadL_ZNS2_9ToIntegerERKS2_EEE5ClearEPKcj @602
    _ZN14DataStructures4HashIN6RakNet9RakStringES2_Lj16EXadL_ZNS2_9ToIntegerERKS2_EEEC1Ev @603
    _ZN14DataStructures4HashIN6RakNet9RakStringES2_Lj16EXadL_ZNS2_9ToIntegerERKS2_EEED1Ev @604
    _ZN14DataStructures4HashIyPN6RakNet13TM_TeamMemberELj256EXadL_ZNS2_8ToUint32ERKyEEE10ClearIndexEjPKcj @605
    _ZN14DataStructures4HashIyPN6RakNet13TM_TeamMemberELj256EXadL_ZNS2_8ToUint32ERKyEEE10GetIndexOfEy @606
    _ZN14DataStructures4HashIyPN6RakNet13TM_TeamMemberELj256EXadL_ZNS2_8ToUint32ERKyEEE11ItemAtIndexERKNS_9HashIndexE @607
    _ZN14DataStructures4HashIyPN6RakNet13TM_TeamMemberELj256EXadL_ZNS2_8ToUint32ERKyEEE13RemoveAtIndexENS_9HashIndexEPKcj @608
    _ZN14DataStructures4HashIyPN6RakNet13TM_TeamMemberELj256EXadL_ZNS2_8ToUint32ERKyEEE4NodeC1EyRKS3_ @609
    _ZN14DataStructures4HashIyPN6RakNet13TM_TeamMemberELj256EXadL_ZNS2_8ToUint32ERKyEEE4PushEyRKS3_PKcj @610
    _ZN14DataStructures4HashIyPN6RakNet13TM_TeamMemberELj256EXadL_ZNS2_8ToUint32ERKyEEE5ClearEPKcj @611
    _ZN14DataStructures4HashIyPN6RakNet13TM_TeamMemberELj256EXadL_ZNS2_8ToUint32ERKyEEE6RemoveEyPKcj @612
    _ZN14DataStructures4HashIyPN6RakNet13TM_TeamMemberELj256EXadL_ZNS2_8ToUint32ERKyEEEC1Ev @613
    _ZN14DataStructures4HashIyPN6RakNet13TM_TeamMemberELj256EXadL_ZNS2_8ToUint32ERKyEEED1Ev @614
    _ZN14DataStructures4HashIyPN6RakNet7TM_TeamELj256EXadL_ZNS2_8ToUint32ERKyEEE10ClearIndexEjPKcj @615
    _ZN14DataStructures4HashIyPN6RakNet7TM_TeamELj256EXadL_ZNS2_8ToUint32ERKyEEE10GetIndexOfEy @616
    _ZN14DataStructures4HashIyPN6RakNet7TM_TeamELj256EXadL_ZNS2_8ToUint32ERKyEEE11ItemAtIndexERKNS_9HashIndexE @617
    _ZN14DataStructures4HashIyPN6RakNet7TM_TeamELj256EXadL_ZNS2_8ToUint32ERKyEEE13RemoveAtIndexENS_9HashIndexEPKcj @618
    _ZN14DataStructures4HashIyPN6RakNet7TM_TeamELj256EXadL_ZNS2_8ToUint32ERKyEEE4NodeC1EyRKS3_ @619
    _ZN14DataStructures4HashIyPN6RakNet7TM_TeamELj256EXadL_ZNS2_8ToUint32ERKyEEE4PushEyRKS3_PKcj @620
    _ZN14DataStructures4HashIyPN6RakNet7TM_TeamELj256EXadL_ZNS2_8ToUint32ERKyEEE5ClearEPKcj @621
    _ZN14DataStructures4HashIyPN6RakNet7TM_TeamELj256EXadL_ZNS2_8ToUint32ERKyEEE6RemoveEyPKcj @622
    _ZN14DataStructures4HashIyPN6RakNet7TM_TeamELj256EXadL_ZNS2_8ToUint32ERKyEEEC1Ev @623
    _ZN14DataStructures4HashIyPN6RakNet7TM_TeamELj256EXadL_ZNS2_8ToUint32ERKyEEED1Ev @624
    _ZN14DataStructures4HeapIyPN6RakNet14InternalPacketELb0EE10PushSeriesERKyRKS3_PKcj @625
    _ZN14DataStructures4HeapIyPN6RakNet14InternalPacketELb0EE11StartSeriesEv @626
    _ZN14DataStructures4HeapIyPN6RakNet14InternalPacketELb0EE3PopEj @627
    _ZN14DataStructures4HeapIyPN6RakNet14InternalPacketELb0EE4PushERKyRKS3_PKcj @628
    _ZN14DataStructures4HeapIyPN6RakNet14InternalPacketELb0EE4SwapEjj @629
    _ZN14DataStructures4HeapIyPN6RakNet14InternalPacketELb0EE5ClearEbPKcj @630
    _ZN14DataStructures4HeapIyPN6RakNet14InternalPacketELb0EE8HeapNodeC1ERKyRKS3_ @631
    _ZN14DataStructures4HeapIyPN6RakNet14InternalPacketELb0EE8HeapNodeC1Ev @632
    _ZN14DataStructures4HeapIyPN6RakNet14InternalPacketELb0EEC1Ev @633
    _ZN14DataStructures4HeapIyPN6RakNet14InternalPacketELb0EED1Ev @634
    _ZN14DataStructures4ListI10StrAndBoolE5ClearEbPKcj @635
    _ZN14DataStructures4ListI10StrAndBoolE6InsertERKS1_PKcj @636
    _ZN14DataStructures4ListI10StrAndBoolE6InsertERKS1_jPKcj @637
    _ZN14DataStructures4ListI10StrAndBoolEC1Ev @638
    _ZN14DataStructures4ListI10StrAndBoolED1Ev @639
    _ZN14DataStructures4ListIN17VariadicSQLParser12IndexAndTypeEE5ClearEbPKcj @640
    _ZN14DataStructures4ListIN17VariadicSQLParser12IndexAndTypeEE6InsertERKS2_PKcj @641
    _ZN14DataStructures4ListIN6RakNet10RakNetGUIDEE13RemoveAtIndexEj @642
    _ZN14DataStructures4ListIN6RakNet10RakNetGUIDEE13RemoveFromEndEj @643
    _ZN14DataStructures4ListIN6RakNet10RakNetGUIDEE4PushERKS2_PKcj @644
    _ZN14DataStructures4ListIN6RakNet10RakNetGUIDEE5ClearEbPKcj @645
    _ZN14DataStructures4ListIN6RakNet10RakNetGUIDEE6InsertERKS2_PKcj @646
    _ZN14DataStructures4ListIN6RakNet10RakNetGUIDEE6InsertERKS2_jPKcj @647
    _ZN14DataStructures4ListIN6RakNet10RakNetGUIDEEC1Ev @648
    _ZN14DataStructures4ListIN6RakNet10RakNetGUIDEED1Ev @649
    _ZN14DataStructures4ListIN6RakNet10RakNetGUIDEEaSERKS3_ @650
    _ZN14DataStructures4ListIN6RakNet10ReadyEvent12RemoteSystemEE13RemoveAtIndexEj @651
    _ZN14DataStructures4ListIN6RakNet10ReadyEvent12RemoteSystemEE13RemoveFromEndEj @652
    _ZN14DataStructures4ListIN6RakNet10ReadyEvent12RemoteSystemEE5ClearEbPKcj @653
    _ZN14DataStructures4ListIN6RakNet10ReadyEvent12RemoteSystemEE6InsertERKS3_jPKcj @654
    _ZN14DataStructures4ListIN6RakNet10ReadyEvent12RemoteSystemEEC1Ev @655
    _ZN14DataStructures4ListIN6RakNet10ReadyEvent12RemoteSystemEED1Ev @656
    _ZN14DataStructures4ListIN6RakNet11RelayPlugin10StrAndGuidEE17RemoveAtIndexFastEj @657
    _ZN14DataStructures4ListIN6RakNet11RelayPlugin10StrAndGuidEE4PushERKS3_PKcj @658
    _ZN14DataStructures4ListIN6RakNet11RelayPlugin10StrAndGuidEE6InsertERKS3_PKcj @659
    _ZN14DataStructures4ListIN6RakNet11RelayPlugin10StrAndGuidEEC1Ev @660
    _ZN14DataStructures4ListIN6RakNet11RelayPlugin10StrAndGuidEED1Ev @661
    _ZN14DataStructures4ListIN6RakNet12FileListNodeEE13RemoveAtIndexEj @662
    _ZN14DataStructures4ListIN6RakNet12FileListNodeEE13RemoveFromEndEj @663
    _ZN14DataStructures4ListIN6RakNet12FileListNodeEE5ClearEbPKcj @664
    _ZN14DataStructures4ListIN6RakNet12FileListNodeEE6InsertERKS2_PKcj @665
    _ZN14DataStructures4ListIN6RakNet12FileListNodeEEC1Ev @666
    _ZN14DataStructures4ListIN6RakNet12FileListNodeEED1Ev @667
    _ZN14DataStructures4ListIN6RakNet12TeamBalancer10TeamMemberEE17RemoveAtIndexFastEj @668
    _ZN14DataStructures4ListIN6RakNet12TeamBalancer10TeamMemberEE4PushERKS3_PKcj @669
    _ZN14DataStructures4ListIN6RakNet12TeamBalancer10TeamMemberEE6InsertERKS3_PKcj @670
    _ZN14DataStructures4ListIN6RakNet12TeamBalancer10TeamMemberEEC1Ev @671
    _ZN14DataStructures4ListIN6RakNet12TeamBalancer10TeamMemberEED1Ev @672
    _ZN14DataStructures4ListIN6RakNet12TeamBalancer13MyTeamMembersEE17RemoveAtIndexFastEj @673
    _ZN14DataStructures4ListIN6RakNet12TeamBalancer13MyTeamMembersEE4PushERKS3_PKcj @674
    _ZN14DataStructures4ListIN6RakNet12TeamBalancer13MyTeamMembersEE6InsertERKS3_PKcj @675
    _ZN14DataStructures4ListIN6RakNet12TeamBalancer13MyTeamMembersEEC1Ev @676
    _ZN14DataStructures4ListIN6RakNet12TeamBalancer13MyTeamMembersEED1Ev @677
    _ZN14DataStructures4ListIN6RakNet13AddressOrGUIDEE4PushERKS2_PKcj @678
    _ZN14DataStructures4ListIN6RakNet13AddressOrGUIDEE5ClearEbPKcj @679
    _ZN14DataStructures4ListIN6RakNet13AddressOrGUIDEE6InsertERKS2_PKcj @680
    _ZN14DataStructures4ListIN6RakNet13AddressOrGUIDEEC1Ev @681
    _ZN14DataStructures4ListIN6RakNet13AddressOrGUIDEED1Ev @682
    _ZN14DataStructures4ListIN6RakNet13SystemAddressEE13RemoveAtIndexEj @683
    _ZN14DataStructures4ListIN6RakNet13SystemAddressEE13RemoveFromEndEj @684
    _ZN14DataStructures4ListIN6RakNet13SystemAddressEE17RemoveAtIndexFastEj @685
    _ZN14DataStructures4ListIN6RakNet13SystemAddressEE4PushERKS2_PKcj @686
    _ZN14DataStructures4ListIN6RakNet13SystemAddressEE5ClearEbPKcj @687
    _ZN14DataStructures4ListIN6RakNet13SystemAddressEE6InsertERKS2_PKcj @688
    _ZN14DataStructures4ListIN6RakNet13SystemAddressEE6InsertERKS2_jPKcj @689
    _ZN14DataStructures4ListIN6RakNet13SystemAddressEEC1Ev @690
    _ZN14DataStructures4ListIN6RakNet13SystemAddressEED1Ev @691
    _ZN14DataStructures4ListIN6RakNet13TM_TeamMember13RequestedTeamEE13RemoveAtIndexEj @692
    _ZN14DataStructures4ListIN6RakNet13TM_TeamMember13RequestedTeamEE13RemoveFromEndEj @693
    _ZN14DataStructures4ListIN6RakNet13TM_TeamMember13RequestedTeamEE4PushERKS3_PKcj @694
    _ZN14DataStructures4ListIN6RakNet13TM_TeamMember13RequestedTeamEE5ClearEbPKcj @695
    _ZN14DataStructures4ListIN6RakNet13TM_TeamMember13RequestedTeamEE6InsertERKS3_PKcj @696
    _ZN14DataStructures4ListIN6RakNet13TM_TeamMember13RequestedTeamEEC1Ev @697
    _ZN14DataStructures4ListIN6RakNet13TM_TeamMember13RequestedTeamEED1Ev @698
    _ZN14DataStructures4ListIN6RakNet14FilteredSystemEE4PushERKS2_PKcj @699
    _ZN14DataStructures4ListIN6RakNet14FilteredSystemEE5ClearEbPKcj @700
    _ZN14DataStructures4ListIN6RakNet14FilteredSystemEE6InsertERKS2_PKcj @701
    _ZN14DataStructures4ListIN6RakNet14FilteredSystemEEC1Ev @702
    _ZN14DataStructures4ListIN6RakNet14FilteredSystemEED1Ev @703
    _ZN14DataStructures4ListIN6RakNet14UDPProxyClient14ServerWithPingEE4PushERKS3_PKcj @704
    _ZN14DataStructures4ListIN6RakNet14UDPProxyClient14ServerWithPingEE6InsertERKS3_PKcj @705
    _ZN14DataStructures4ListIN6RakNet14UDPProxyClient14ServerWithPingEEC1Ev @706
    _ZN14DataStructures4ListIN6RakNet14UDPProxyClient14ServerWithPingEED1Ev @707
    _ZN14DataStructures4ListIN6RakNet16ConnectionGraph220SystemAddressAndGuidEE13RemoveAtIndexEj @708
    _ZN14DataStructures4ListIN6RakNet16ConnectionGraph220SystemAddressAndGuidEE13RemoveFromEndEj @709
    _ZN14DataStructures4ListIN6RakNet16ConnectionGraph220SystemAddressAndGuidEE5ClearEbPKcj @710
    _ZN14DataStructures4ListIN6RakNet16ConnectionGraph220SystemAddressAndGuidEE6InsertERKS3_jPKcj @711
    _ZN14DataStructures4ListIN6RakNet16ConnectionGraph220SystemAddressAndGuidEEC1Ev @712
    _ZN14DataStructures4ListIN6RakNet16ConnectionGraph220SystemAddressAndGuidEED1Ev @713
    _ZN14DataStructures4ListIN6RakNet16LogCommandParser23SystemAddressAndChannelEE13RemoveFromEndEj @714
    _ZN14DataStructures4ListIN6RakNet16LogCommandParser23SystemAddressAndChannelEE6InsertERKS3_PKcj @715
    _ZN14DataStructures4ListIN6RakNet16LogCommandParser23SystemAddressAndChannelEEC1Ev @716
    _ZN14DataStructures4ListIN6RakNet16LogCommandParser23SystemAddressAndChannelEED1Ev @717
    _ZN14DataStructures4ListIN6RakNet16RakNetStatisticsEE4PushERKS2_PKcj @718
    _ZN14DataStructures4ListIN6RakNet16RakNetStatisticsEE5ClearEbPKcj @719
    _ZN14DataStructures4ListIN6RakNet16RakNetStatisticsEE6InsertERKS2_PKcj @720
    _ZN14DataStructures4ListIN6RakNet16RakNetStatisticsEEC1Ev @721
    _ZN14DataStructures4ListIN6RakNet16RakNetStatisticsEED1Ev @722
    _ZN14DataStructures4ListIN6RakNet16ReliabilityLayer28UnreliableWithAckReceiptNodeEE13RemoveAtIndexEj @723
    _ZN14DataStructures4ListIN6RakNet16ReliabilityLayer28UnreliableWithAckReceiptNodeEE13RemoveFromEndEj @724
    _ZN14DataStructures4ListIN6RakNet16ReliabilityLayer28UnreliableWithAckReceiptNodeEE4PushERKS3_PKcj @725
    _ZN14DataStructures4ListIN6RakNet16ReliabilityLayer28UnreliableWithAckReceiptNodeEE5ClearEbPKcj @726
    _ZN14DataStructures4ListIN6RakNet16ReliabilityLayer28UnreliableWithAckReceiptNodeEE6InsertERKS3_PKcj @727
    _ZN14DataStructures4ListIN6RakNet16ReliabilityLayer28UnreliableWithAckReceiptNodeEEC1Ev @728
    _ZN14DataStructures4ListIN6RakNet16ReliabilityLayer28UnreliableWithAckReceiptNodeEED1Ev @729
    _ZN14DataStructures4ListIN6RakNet17RegisteredCommandEE5ClearEbPKcj @730
    _ZN14DataStructures4ListIN6RakNet17RegisteredCommandEE6InsertERKS2_PKcj @731
    _ZN14DataStructures4ListIN6RakNet17RegisteredCommandEE6InsertERKS2_jPKcj @732
    _ZN14DataStructures4ListIN6RakNet17RegisteredCommandEEC1Ev @733
    _ZN14DataStructures4ListIN6RakNet17RegisteredCommandEED1Ev @734
    _ZN14DataStructures4ListIN6RakNet19FullyConnectedMesh228VerifiedJoinInProgressMemberEE4PushERKS3_PKcj @735
    _ZN14DataStructures4ListIN6RakNet19FullyConnectedMesh228VerifiedJoinInProgressMemberEE6InsertERKS3_PKcj @736
    _ZN14DataStructures4ListIN6RakNet19FullyConnectedMesh228VerifiedJoinInProgressMemberEEC1Ev @737
    _ZN14DataStructures4ListIN6RakNet19FullyConnectedMesh228VerifiedJoinInProgressMemberEED1Ev @738
    _ZN14DataStructures4ListIN6RakNet19UDPProxyCoordinator14ServerWithPingEE5ClearEbPKcj @739
    _ZN14DataStructures4ListIN6RakNet19UDPProxyCoordinator14ServerWithPingEE6InsertERKS3_PKcj @740
    _ZN14DataStructures4ListIN6RakNet19UDPProxyCoordinator14ServerWithPingEE6InsertERKS3_jPKcj @741
    _ZN14DataStructures4ListIN6RakNet19UDPProxyCoordinator14ServerWithPingEEC1Ev @742
    _ZN14DataStructures4ListIN6RakNet19UDPProxyCoordinator14ServerWithPingEED1Ev @743
    _ZN14DataStructures4ListIN6RakNet21NatPunchthroughClient11AddrAndGuidEE17RemoveAtIndexFastEj @744
    _ZN14DataStructures4ListIN6RakNet21NatPunchthroughClient11AddrAndGuidEE4PushERKS3_PKcj @745
    _ZN14DataStructures4ListIN6RakNet21NatPunchthroughClient11AddrAndGuidEE5ClearEbPKcj @746
    _ZN14DataStructures4ListIN6RakNet21NatPunchthroughClient11AddrAndGuidEE6InsertERKS3_PKcj @747
    _ZN14DataStructures4ListIN6RakNet21NatPunchthroughClient11AddrAndGuidEEC1Ev @748
    _ZN14DataStructures4ListIN6RakNet21NatPunchthroughClient11AddrAndGuidEED1Ev @749
    _ZN14DataStructures4ListIN6RakNet22NatTypeDetectionServer19NATDetectionAttemptEE17RemoveAtIndexFastEj @750
    _ZN14DataStructures4ListIN6RakNet22NatTypeDetectionServer19NATDetectionAttemptEE4PushERKS3_PKcj @751
    _ZN14DataStructures4ListIN6RakNet22NatTypeDetectionServer19NATDetectionAttemptEE6InsertERKS3_PKcj @752
    _ZN14DataStructures4ListIN6RakNet22NatTypeDetectionServer19NATDetectionAttemptEEC1Ev @753
    _ZN14DataStructures4ListIN6RakNet22NatTypeDetectionServer19NATDetectionAttemptEED1Ev @754
    _ZN14DataStructures4ListIN6RakNet24VariableListDeltaTracker21VariableLastValueNodeEEC1Ev @755
    _ZN14DataStructures4ListIN6RakNet24VariableListDeltaTracker21VariableLastValueNodeEED1Ev @756
    _ZN14DataStructures4ListIN6RakNet4RPC415LocalSlotObjectEE5ClearEbPKcj @757
    _ZN14DataStructures4ListIN6RakNet4RPC415LocalSlotObjectEE6InsertERKS3_PKcj @758
    _ZN14DataStructures4ListIN6RakNet4RPC415LocalSlotObjectEE6InsertERKS3_jPKcj @759
    _ZN14DataStructures4ListIN6RakNet4RPC415LocalSlotObjectEEC1Ev @760
    _ZN14DataStructures4ListIN6RakNet4RPC415LocalSlotObjectEED1Ev @761
    _ZN14DataStructures4ListIN6RakNet7Router216MiniPunchRequestEE17RemoveAtIndexFastEj @762
    _ZN14DataStructures4ListIN6RakNet7Router216MiniPunchRequestEE4PushERKS3_PKcj @763
    _ZN14DataStructures4ListIN6RakNet7Router216MiniPunchRequestEE5ClearEbPKcj @764
    _ZN14DataStructures4ListIN6RakNet7Router216MiniPunchRequestEE6InsertERKS3_PKcj @765
    _ZN14DataStructures4ListIN6RakNet7Router216MiniPunchRequestEEC1Ev @766
    _ZN14DataStructures4ListIN6RakNet7Router216MiniPunchRequestEED1Ev @767
    _ZN14DataStructures4ListIN6RakNet7Router219ForwardedConnectionEE17RemoveAtIndexFastEj @768
    _ZN14DataStructures4ListIN6RakNet7Router219ForwardedConnectionEE4PushERKS3_PKcj @769
    _ZN14DataStructures4ListIN6RakNet7Router219ForwardedConnectionEE5ClearEbPKcj @770
    _ZN14DataStructures4ListIN6RakNet7Router219ForwardedConnectionEE6InsertERKS3_PKcj @771
    _ZN14DataStructures4ListIN6RakNet7Router219ForwardedConnectionEEC1Ev @772
    _ZN14DataStructures4ListIN6RakNet7Router219ForwardedConnectionEED1Ev @773
    _ZN14DataStructures4ListIN6RakNet7Router223ConnectionRequestSystemEE13RemoveAtIndexEj @774
    _ZN14DataStructures4ListIN6RakNet7Router223ConnectionRequestSystemEE13RemoveFromEndEj @775
    _ZN14DataStructures4ListIN6RakNet7Router223ConnectionRequestSystemEE17RemoveAtIndexFastEj @776
    _ZN14DataStructures4ListIN6RakNet7Router223ConnectionRequestSystemEE4PushERKS3_PKcj @777
    _ZN14DataStructures4ListIN6RakNet7Router223ConnectionRequestSystemEE5ClearEbPKcj @778
    _ZN14DataStructures4ListIN6RakNet7Router223ConnectionRequestSystemEE6InsertERKS3_PKcj @779
    _ZN14DataStructures4ListIN6RakNet7Router223ConnectionRequestSystemEE6InsertERKS3_jPKcj @780
    _ZN14DataStructures4ListIN6RakNet7Router223ConnectionRequestSystemEEC1Ev @781
    _ZN14DataStructures4ListIN6RakNet7Router223ConnectionRequestSystemEED1Ev @782
    _ZN14DataStructures4ListIN6RakNet8CloudKeyEE13RemoveAtIndexEj @783
    _ZN14DataStructures4ListIN6RakNet8CloudKeyEE13RemoveFromEndEj @784
    _ZN14DataStructures4ListIN6RakNet8CloudKeyEE4PushERKS2_PKcj @785
    _ZN14DataStructures4ListIN6RakNet8CloudKeyEE5ClearEbPKcj @786
    _ZN14DataStructures4ListIN6RakNet8CloudKeyEE6InsertERKS2_PKcj @787
    _ZN14DataStructures4ListIN6RakNet8CloudKeyEE6InsertERKS2_jPKcj @788
    _ZN14DataStructures4ListIN6RakNet8CloudKeyEEC1Ev @789
    _ZN14DataStructures4ListIN6RakNet8CloudKeyEED1Ev @790
    _ZN14DataStructures4ListIN6RakNet8CloudKeyEEaSERKS3_ @791
    _ZN14DataStructures4ListIN6RakNet8TM_World17JoinRequestHelperEE5ClearEbPKcj @792
    _ZN14DataStructures4ListIN6RakNet8TM_World17JoinRequestHelperEE6InsertERKS3_PKcj @793
    _ZN14DataStructures4ListIN6RakNet8TM_World17JoinRequestHelperEE6InsertERKS3_jPKcj @794
    _ZN14DataStructures4ListIN6RakNet8TM_World17JoinRequestHelperEEC1Ev @795
    _ZN14DataStructures4ListIN6RakNet8TM_World17JoinRequestHelperEED1Ev @796
    _ZN14DataStructures4ListIN6RakNet9Rackspace18RackspaceOperationEE13RemoveAtIndexEj @797
    _ZN14DataStructures4ListIN6RakNet9Rackspace18RackspaceOperationEE13RemoveFromEndEj @798
    _ZN14DataStructures4ListIN6RakNet9Rackspace18RackspaceOperationEE6InsertERKS3_PKcj @799
    _ZN14DataStructures4ListIN6RakNet9Rackspace18RackspaceOperationEEC1Ev @800
    _ZN14DataStructures4ListIN6RakNet9Rackspace18RackspaceOperationEED1Ev @801
    _ZN14DataStructures4ListIN6RakNet9RakStringEE13RemoveAtIndexEj @802
    _ZN14DataStructures4ListIN6RakNet9RakStringEE13RemoveFromEndEj @803
    _ZN14DataStructures4ListIN6RakNet9RakStringEE4PushERKS2_PKcj @804
    _ZN14DataStructures4ListIN6RakNet9RakStringEE5ClearEbPKcj @805
    _ZN14DataStructures4ListIN6RakNet9RakStringEE6InsertERKS2_PKcj @806
    _ZN14DataStructures4ListIN6RakNet9RakStringEE6InsertERKS2_jPKcj @807
    _ZN14DataStructures4ListIN6RakNet9RakStringEEC1Ev @808
    _ZN14DataStructures4ListIN6RakNet9RakStringEED1Ev @809
    _ZN14DataStructures4ListINS_3MapIN6RakNet13SystemAddressEPNS_9ByteQueueEXadL_ZNS_23defaultMapKeyComparisonIS3_EEiRKT_S9_EEE7MapNodeEE13RemoveAtIndexEj @810
    _ZN14DataStructures4ListINS_3MapIN6RakNet13SystemAddressEPNS_9ByteQueueEXadL_ZNS_23defaultMapKeyComparisonIS3_EEiRKT_S9_EEE7MapNodeEE13RemoveFromEndEj @811
    _ZN14DataStructures4ListINS_3MapIN6RakNet13SystemAddressEPNS_9ByteQueueEXadL_ZNS_23defaultMapKeyComparisonIS3_EEiRKT_S9_EEE7MapNodeEE5ClearEbPKcj @812
    _ZN14DataStructures4ListINS_3MapIN6RakNet13SystemAddressEPNS_9ByteQueueEXadL_ZNS_23defaultMapKeyComparisonIS3_EEiRKT_S9_EEE7MapNodeEE6InsertERKSB_PKcj @813
    _ZN14DataStructures4ListINS_3MapIN6RakNet13SystemAddressEPNS_9ByteQueueEXadL_ZNS_23defaultMapKeyComparisonIS3_EEiRKT_S9_EEE7MapNodeEE6InsertERKSB_jPKcj @814
    _ZN14DataStructures4ListINS_3MapIN6RakNet13SystemAddressEPNS_9ByteQueueEXadL_ZNS_23defaultMapKeyComparisonIS3_EEiRKT_S9_EEE7MapNodeEEC1Ev @815
    _ZN14DataStructures4ListINS_3MapIN6RakNet13SystemAddressEPNS_9ByteQueueEXadL_ZNS_23defaultMapKeyComparisonIS3_EEiRKT_S9_EEE7MapNodeEED1Ev @816
    _ZN14DataStructures4ListINS_3MapIiPN6RakNet19HuffmanEncodingTreeEXadL_ZNS_23defaultMapKeyComparisonIiEEiRKT_S8_EEE7MapNodeEE5ClearEbPKcj @817
    _ZN14DataStructures4ListINS_3MapIiPN6RakNet19HuffmanEncodingTreeEXadL_ZNS_23defaultMapKeyComparisonIiEEiRKT_S8_EEE7MapNodeEE6InsertERKSA_PKcj @818
    _ZN14DataStructures4ListINS_3MapIiPN6RakNet19HuffmanEncodingTreeEXadL_ZNS_23defaultMapKeyComparisonIiEEiRKT_S8_EEE7MapNodeEE6InsertERKSA_jPKcj @819
    _ZN14DataStructures4ListINS_3MapIiPN6RakNet19HuffmanEncodingTreeEXadL_ZNS_23defaultMapKeyComparisonIiEEiRKT_S8_EEE7MapNodeEEC1Ev @820
    _ZN14DataStructures4ListINS_3MapIiPN6RakNet19HuffmanEncodingTreeEXadL_ZNS_23defaultMapKeyComparisonIiEEiRKT_S8_EEE7MapNodeEED1Ev @821
    _ZN14DataStructures4ListINS_3MapIjN6RakNet15FLR_MemoryBlockEXadL_ZNS_23defaultMapKeyComparisonIjEEiRKT_S7_EEE7MapNodeEE13RemoveAtIndexEj @822
    _ZN14DataStructures4ListINS_3MapIjN6RakNet15FLR_MemoryBlockEXadL_ZNS_23defaultMapKeyComparisonIjEEiRKT_S7_EEE7MapNodeEE13RemoveFromEndEj @823
    _ZN14DataStructures4ListINS_3MapIjN6RakNet15FLR_MemoryBlockEXadL_ZNS_23defaultMapKeyComparisonIjEEiRKT_S7_EEE7MapNodeEE5ClearEbPKcj @824
    _ZN14DataStructures4ListINS_3MapIjN6RakNet15FLR_MemoryBlockEXadL_ZNS_23defaultMapKeyComparisonIjEEiRKT_S7_EEE7MapNodeEE6InsertERKS9_PKcj @825
    _ZN14DataStructures4ListINS_3MapIjN6RakNet15FLR_MemoryBlockEXadL_ZNS_23defaultMapKeyComparisonIjEEiRKT_S7_EEE7MapNodeEE6InsertERKS9_jPKcj @826
    _ZN14DataStructures4ListINS_3MapIjN6RakNet15FLR_MemoryBlockEXadL_ZNS_23defaultMapKeyComparisonIjEEiRKT_S7_EEE7MapNodeEEC1Ev @827
    _ZN14DataStructures4ListINS_3MapIjN6RakNet15FLR_MemoryBlockEXadL_ZNS_23defaultMapKeyComparisonIjEEiRKT_S7_EEE7MapNodeEED1Ev @828
    _ZN14DataStructures4ListINS_3MapItPN6RakNet16FileListReceiverEXadL_ZNS_23defaultMapKeyComparisonItEEiRKT_S8_EEE7MapNodeEE13RemoveAtIndexEj @829
    _ZN14DataStructures4ListINS_3MapItPN6RakNet16FileListReceiverEXadL_ZNS_23defaultMapKeyComparisonItEEiRKT_S8_EEE7MapNodeEE13RemoveFromEndEj @830
    _ZN14DataStructures4ListINS_3MapItPN6RakNet16FileListReceiverEXadL_ZNS_23defaultMapKeyComparisonItEEiRKT_S8_EEE7MapNodeEE5ClearEbPKcj @831
    _ZN14DataStructures4ListINS_3MapItPN6RakNet16FileListReceiverEXadL_ZNS_23defaultMapKeyComparisonItEEiRKT_S8_EEE7MapNodeEE6InsertERKSA_PKcj @832
    _ZN14DataStructures4ListINS_3MapItPN6RakNet16FileListReceiverEXadL_ZNS_23defaultMapKeyComparisonItEEiRKT_S8_EEE7MapNodeEE6InsertERKSA_jPKcj @833
    _ZN14DataStructures4ListINS_3MapItPN6RakNet16FileListReceiverEXadL_ZNS_23defaultMapKeyComparisonItEEiRKT_S8_EEE7MapNodeEEC1Ev @834
    _ZN14DataStructures4ListINS_3MapItPN6RakNet16FileListReceiverEXadL_ZNS_23defaultMapKeyComparisonItEEiRKT_S8_EEE7MapNodeEED1Ev @835
    _ZN14DataStructures4ListINS_4HeapIyPN6RakNet14InternalPacketELb0EE8HeapNodeEE13RemoveFromEndEj @836
    _ZN14DataStructures4ListINS_4HeapIyPN6RakNet14InternalPacketELb0EE8HeapNodeEE5ClearEbPKcj @837
    _ZN14DataStructures4ListINS_4HeapIyPN6RakNet14InternalPacketELb0EE8HeapNodeEE6InsertERKS6_PKcj @838
    _ZN14DataStructures4ListINS_4HeapIyPN6RakNet14InternalPacketELb0EE8HeapNodeEEC1Ev @839
    _ZN14DataStructures4ListINS_4HeapIyPN6RakNet14InternalPacketELb0EE8HeapNodeEED1Ev @840
    _ZN14DataStructures4ListINS_5Table16ColumnDescriptorEE13RemoveAtIndexEj @841
    _ZN14DataStructures4ListINS_5Table16ColumnDescriptorEE13RemoveFromEndEj @842
    _ZN14DataStructures4ListINS_5Table16ColumnDescriptorEE5ClearEbPKcj @843
    _ZN14DataStructures4ListINS_5Table16ColumnDescriptorEE6InsertERKS2_PKcj @844
    _ZN14DataStructures4ListINS_5Table16ColumnDescriptorEEC1Ev @845
    _ZN14DataStructures4ListINS_5Table16ColumnDescriptorEED1Ev @846
    _ZN14DataStructures4ListINS_9RangeNodeIN6RakNet8uint24_tEEEE13RemoveAtIndexEj @847
    _ZN14DataStructures4ListINS_9RangeNodeIN6RakNet8uint24_tEEEE13RemoveFromEndEj @848
    _ZN14DataStructures4ListINS_9RangeNodeIN6RakNet8uint24_tEEEE5ClearEbPKcj @849
    _ZN14DataStructures4ListINS_9RangeNodeIN6RakNet8uint24_tEEEE6InsertERKS4_PKcj @850
    _ZN14DataStructures4ListINS_9RangeNodeIN6RakNet8uint24_tEEEE6InsertERKS4_jPKcj @851
    _ZN14DataStructures4ListINS_9RangeNodeIN6RakNet8uint24_tEEEEC1Ev @852
    _ZN14DataStructures4ListINS_9RangeNodeIN6RakNet8uint24_tEEEED1Ev @853
    _ZN14DataStructures4ListIPN6RakNet10ReadyEvent14ReadyEventNodeEE13RemoveAtIndexEj @854
    _ZN14DataStructures4ListIPN6RakNet10ReadyEvent14ReadyEventNodeEE13RemoveFromEndEj @855
    _ZN14DataStructures4ListIPN6RakNet10ReadyEvent14ReadyEventNodeEE5ClearEbPKcj @856
    _ZN14DataStructures4ListIPN6RakNet10ReadyEvent14ReadyEventNodeEE6InsertERKS4_PKcj @857
    _ZN14DataStructures4ListIPN6RakNet10ReadyEvent14ReadyEventNodeEE6InsertERKS4_jPKcj @858
    _ZN14DataStructures4ListIPN6RakNet10ReadyEvent14ReadyEventNodeEEC1Ev @859
    _ZN14DataStructures4ListIPN6RakNet10ReadyEvent14ReadyEventNodeEED1Ev @860
    _ZN14DataStructures4ListIPN6RakNet11CloudServer10GetRequestEE13RemoveAtIndexEj @861
    _ZN14DataStructures4ListIPN6RakNet11CloudServer10GetRequestEE13RemoveFromEndEj @862
    _ZN14DataStructures4ListIPN6RakNet11CloudServer10GetRequestEE5ClearEbPKcj @863
    _ZN14DataStructures4ListIPN6RakNet11CloudServer10GetRequestEE6InsertERKS4_PKcj @864
    _ZN14DataStructures4ListIPN6RakNet11CloudServer10GetRequestEE6InsertERKS4_jPKcj @865
    _ZN14DataStructures4ListIPN6RakNet11CloudServer10GetRequestEEC1Ev @866
    _ZN14DataStructures4ListIPN6RakNet11CloudServer10GetRequestEED1Ev @867
    _ZN14DataStructures4ListIPN6RakNet11CloudServer12RemoteServerEE13RemoveAtIndexEj @868
    _ZN14DataStructures4ListIPN6RakNet11CloudServer12RemoteServerEE13RemoveFromEndEj @869
    _ZN14DataStructures4ListIPN6RakNet11CloudServer12RemoteServerEE4PushERKS4_PKcj @870
    _ZN14DataStructures4ListIPN6RakNet11CloudServer12RemoteServerEE5ClearEbPKcj @871
    _ZN14DataStructures4ListIPN6RakNet11CloudServer12RemoteServerEE6InsertERKS4_PKcj @872
    _ZN14DataStructures4ListIPN6RakNet11CloudServer12RemoteServerEE6InsertERKS4_jPKcj @873
    _ZN14DataStructures4ListIPN6RakNet11CloudServer12RemoteServerEEC1Ev @874
    _ZN14DataStructures4ListIPN6RakNet11CloudServer12RemoteServerEED1Ev @875
    _ZN14DataStructures4ListIPN6RakNet11CloudServer13CloudDataListEE13RemoveAtIndexEj @876
    _ZN14DataStructures4ListIPN6RakNet11CloudServer13CloudDataListEE13RemoveFromEndEj @877
    _ZN14DataStructures4ListIPN6RakNet11CloudServer13CloudDataListEE5ClearEbPKcj @878
    _ZN14DataStructures4ListIPN6RakNet11CloudServer13CloudDataListEE6InsertERKS4_jPKcj @879
    _ZN14DataStructures4ListIPN6RakNet11CloudServer13CloudDataListEEC1Ev @880
    _ZN14DataStructures4ListIPN6RakNet11CloudServer13CloudDataListEED1Ev @881
    _ZN14DataStructures4ListIPN6RakNet11CloudServer15KeySubscriberIDEE13RemoveAtIndexEj @882
    _ZN14DataStructures4ListIPN6RakNet11CloudServer15KeySubscriberIDEE13RemoveFromEndEj @883
    _ZN14DataStructures4ListIPN6RakNet11CloudServer15KeySubscriberIDEE5ClearEbPKcj @884
    _ZN14DataStructures4ListIPN6RakNet11CloudServer15KeySubscriberIDEE6InsertERKS4_jPKcj @885
    _ZN14DataStructures4ListIPN6RakNet11CloudServer15KeySubscriberIDEEC1Ev @886
    _ZN14DataStructures4ListIPN6RakNet11CloudServer15KeySubscriberIDEED1Ev @887
    _ZN14DataStructures4ListIPN6RakNet11CloudServer17RemoteCloudClientEE4PushERKS4_PKcj @888
    _ZN14DataStructures4ListIPN6RakNet11CloudServer17RemoteCloudClientEE5ClearEbPKcj @889
    _ZN14DataStructures4ListIPN6RakNet11CloudServer17RemoteCloudClientEE6InsertERKS4_PKcj @890
    _ZN14DataStructures4ListIPN6RakNet11CloudServer17RemoteCloudClientEEC1Ev @891
    _ZN14DataStructures4ListIPN6RakNet11CloudServer17RemoteCloudClientEED1Ev @892
    _ZN14DataStructures4ListIPN6RakNet11CloudServer29BufferedGetResponseFromServerEE13RemoveAtIndexEj @893
    _ZN14DataStructures4ListIPN6RakNet11CloudServer29BufferedGetResponseFromServerEE13RemoveFromEndEj @894
    _ZN14DataStructures4ListIPN6RakNet11CloudServer29BufferedGetResponseFromServerEE5ClearEbPKcj @895
    _ZN14DataStructures4ListIPN6RakNet11CloudServer29BufferedGetResponseFromServerEE6InsertERKS4_PKcj @896
    _ZN14DataStructures4ListIPN6RakNet11CloudServer29BufferedGetResponseFromServerEE6InsertERKS4_jPKcj @897
    _ZN14DataStructures4ListIPN6RakNet11CloudServer29BufferedGetResponseFromServerEEC1Ev @898
    _ZN14DataStructures4ListIPN6RakNet11CloudServer29BufferedGetResponseFromServerEED1Ev @899
    _ZN14DataStructures4ListIPN6RakNet11CloudServer9CloudDataEE13RemoveAtIndexEj @900
    _ZN14DataStructures4ListIPN6RakNet11CloudServer9CloudDataEE13RemoveFromEndEj @901
    _ZN14DataStructures4ListIPN6RakNet11CloudServer9CloudDataEE4PushERKS4_PKcj @902
    _ZN14DataStructures4ListIPN6RakNet11CloudServer9CloudDataEE5ClearEbPKcj @903
    _ZN14DataStructures4ListIPN6RakNet11CloudServer9CloudDataEE6InsertERKS4_PKcj @904
    _ZN14DataStructures4ListIPN6RakNet11CloudServer9CloudDataEE6InsertERKS4_jPKcj @905
    _ZN14DataStructures4ListIPN6RakNet11CloudServer9CloudDataEEC1Ev @906
    _ZN14DataStructures4ListIPN6RakNet11CloudServer9CloudDataEED1Ev @907
    _ZN14DataStructures4ListIPN6RakNet11RelayPlugin17StrAndGuidAndRoomEE4PushERKS4_PKcj @908
    _ZN14DataStructures4ListIPN6RakNet11RelayPlugin17StrAndGuidAndRoomEE5ClearEbPKcj @909
    _ZN14DataStructures4ListIPN6RakNet11RelayPlugin17StrAndGuidAndRoomEE6InsertERKS4_PKcj @910
    _ZN14DataStructures4ListIPN6RakNet11RelayPlugin17StrAndGuidAndRoomEEC1Ev @911
    _ZN14DataStructures4ListIPN6RakNet11RelayPlugin17StrAndGuidAndRoomEED1Ev @912
    _ZN14DataStructures4ListIPN6RakNet11RelayPlugin8RP_GroupEE17RemoveAtIndexFastEj @913
    _ZN14DataStructures4ListIPN6RakNet11RelayPlugin8RP_GroupEE4PushERKS4_PKcj @914
    _ZN14DataStructures4ListIPN6RakNet11RelayPlugin8RP_GroupEE6InsertERKS4_PKcj @915
    _ZN14DataStructures4ListIPN6RakNet11RelayPlugin8RP_GroupEEC1Ev @916
    _ZN14DataStructures4ListIPN6RakNet11RelayPlugin8RP_GroupEED1Ev @917
    _ZN14DataStructures4ListIPN6RakNet12UDPForwarder12ForwardEntryEE13RemoveAtIndexEj @918
    _ZN14DataStructures4ListIPN6RakNet12UDPForwarder12ForwardEntryEE13RemoveFromEndEj @919
    _ZN14DataStructures4ListIPN6RakNet12UDPForwarder12ForwardEntryEE17RemoveAtIndexFastEj @920
    _ZN14DataStructures4ListIPN6RakNet12UDPForwarder12ForwardEntryEE5ClearEbPKcj @921
    _ZN14DataStructures4ListIPN6RakNet12UDPForwarder12ForwardEntryEE6InsertERKS4_PKcj @922
    _ZN14DataStructures4ListIPN6RakNet12UDPForwarder12ForwardEntryEEC1Ev @923
    _ZN14DataStructures4ListIPN6RakNet12UDPForwarder12ForwardEntryEED1Ev @924
    _ZN14DataStructures4ListIPN6RakNet13CloudQueryRowEE4PushERKS3_PKcj @925
    _ZN14DataStructures4ListIPN6RakNet13CloudQueryRowEE5ClearEbPKcj @926
    _ZN14DataStructures4ListIPN6RakNet13CloudQueryRowEE6InsertERKS3_PKcj @927
    _ZN14DataStructures4ListIPN6RakNet13CloudQueryRowEEC1Ev @928
    _ZN14DataStructures4ListIPN6RakNet13CloudQueryRowEED1Ev @929
    _ZN14DataStructures4ListIPN6RakNet13RakNetSocket2EE4PushERKS3_PKcj @930
    _ZN14DataStructures4ListIPN6RakNet13RakNetSocket2EE5ClearEbPKcj @931
    _ZN14DataStructures4ListIPN6RakNet13RakNetSocket2EE6InsertERKS3_PKcj @932
    _ZN14DataStructures4ListIPN6RakNet13RakNetSocket2EEC1Ev @933
    _ZN14DataStructures4ListIPN6RakNet13RakNetSocket2EED1Ev @934
    _ZN14DataStructures4ListIPN6RakNet13RakNetSocket2EEaSERKS4_ @935
    _ZN14DataStructures4ListIPN6RakNet13TM_TeamMemberEE13RemoveAtIndexEj @936
    _ZN14DataStructures4ListIPN6RakNet13TM_TeamMemberEE13RemoveFromEndEj @937
    _ZN14DataStructures4ListIPN6RakNet13TM_TeamMemberEE4PushERKS3_PKcj @938
    _ZN14DataStructures4ListIPN6RakNet13TM_TeamMemberEE5ClearEbPKcj @939
    _ZN14DataStructures4ListIPN6RakNet13TM_TeamMemberEE6InsertERKS3_PKcj @940
    _ZN14DataStructures4ListIPN6RakNet13TM_TeamMemberEEC1Ev @941
    _ZN14DataStructures4ListIPN6RakNet13TM_TeamMemberEED1Ev @942
    _ZN14DataStructures4ListIPN6RakNet13TM_TeamMemberEEaSERKS4_ @943
    _ZN14DataStructures4ListIPN6RakNet14Connection_RM3EE13RemoveAtIndexEj @944
    _ZN14DataStructures4ListIPN6RakNet14Connection_RM3EE13RemoveFromEndEj @945
    _ZN14DataStructures4ListIPN6RakNet14Connection_RM3EE4PushERKS3_PKcj @946
    _ZN14DataStructures4ListIPN6RakNet14Connection_RM3EE5ClearEbPKcj @947
    _ZN14DataStructures4ListIPN6RakNet14Connection_RM3EE6InsertERKS3_PKcj @948
    _ZN14DataStructures4ListIPN6RakNet14Connection_RM3EEC1Ev @949
    _ZN14DataStructures4ListIPN6RakNet14Connection_RM3EED1Ev @950
    _ZN14DataStructures4ListIPN6RakNet14InternalPacketEE11PreallocateEjPKcj @951
    _ZN14DataStructures4ListIPN6RakNet14InternalPacketEE4PushERKS3_PKcj @952
    _ZN14DataStructures4ListIPN6RakNet14InternalPacketEE5ClearEbPKcj @953
    _ZN14DataStructures4ListIPN6RakNet14InternalPacketEE6InsertERKS3_PKcj @954
    _ZN14DataStructures4ListIPN6RakNet14InternalPacketEEC1Ev @955
    _ZN14DataStructures4ListIPN6RakNet14InternalPacketEED1Ev @956
    _ZN14DataStructures4ListIPN6RakNet14UDPProxyClient15PingServerGroupEE13RemoveAtIndexEj @957
    _ZN14DataStructures4ListIPN6RakNet14UDPProxyClient15PingServerGroupEE13RemoveFromEndEj @958
    _ZN14DataStructures4ListIPN6RakNet14UDPProxyClient15PingServerGroupEE4PushERKS4_PKcj @959
    _ZN14DataStructures4ListIPN6RakNet14UDPProxyClient15PingServerGroupEE5ClearEbPKcj @960
    _ZN14DataStructures4ListIPN6RakNet14UDPProxyClient15PingServerGroupEE6InsertERKS4_PKcj @961
    _ZN14DataStructures4ListIPN6RakNet14UDPProxyClient15PingServerGroupEEC1Ev @962
    _ZN14DataStructures4ListIPN6RakNet14UDPProxyClient15PingServerGroupEED1Ev @963
    _ZN14DataStructures4ListIPN6RakNet15HTTPConnection27RequestEE17RemoveAtIndexFastEj @964
    _ZN14DataStructures4ListIPN6RakNet15HTTPConnection27RequestEE4PushERKS4_PKcj @965
    _ZN14DataStructures4ListIPN6RakNet15HTTPConnection27RequestEE6InsertERKS4_PKcj @966
    _ZN14DataStructures4ListIPN6RakNet15HTTPConnection27RequestEEC1Ev @967
    _ZN14DataStructures4ListIPN6RakNet15HTTPConnection27RequestEED1Ev @968
    _ZN14DataStructures4ListIPN6RakNet15ReplicaManager38RM3WorldEE17RemoveAtIndexFastEj @969
    _ZN14DataStructures4ListIPN6RakNet15ReplicaManager38RM3WorldEE4PushERKS4_PKcj @970
    _ZN14DataStructures4ListIPN6RakNet15ReplicaManager38RM3WorldEE5ClearEbPKcj @971
    _ZN14DataStructures4ListIPN6RakNet15ReplicaManager38RM3WorldEE6InsertERKS4_PKcj @972
    _ZN14DataStructures4ListIPN6RakNet15ReplicaManager38RM3WorldEEC1Ev @973
    _ZN14DataStructures4ListIPN6RakNet15ReplicaManager38RM3WorldEED1Ev @974
    _ZN14DataStructures4ListIPN6RakNet15TelnetTransport12TelnetClientEE13RemoveFromEndEj @975
    _ZN14DataStructures4ListIPN6RakNet15TelnetTransport12TelnetClientEE5ClearEbPKcj @976
    _ZN14DataStructures4ListIPN6RakNet15TelnetTransport12TelnetClientEE6InsertERKS4_PKcj @977
    _ZN14DataStructures4ListIPN6RakNet15TelnetTransport12TelnetClientEEC1Ev @978
    _ZN14DataStructures4ListIPN6RakNet15TelnetTransport12TelnetClientEED1Ev @979
    _ZN14DataStructures4ListIPN6RakNet16ConnectionGraph212RemoteSystemEE13RemoveAtIndexEj @980
    _ZN14DataStructures4ListIPN6RakNet16ConnectionGraph212RemoteSystemEE13RemoveFromEndEj @981
    _ZN14DataStructures4ListIPN6RakNet16ConnectionGraph212RemoteSystemEE5ClearEbPKcj @982
    _ZN14DataStructures4ListIPN6RakNet16ConnectionGraph212RemoteSystemEE6InsertERKS4_jPKcj @983
    _ZN14DataStructures4ListIPN6RakNet16ConnectionGraph212RemoteSystemEEC1Ev @984
    _ZN14DataStructures4ListIPN6RakNet16ConnectionGraph212RemoteSystemEED1Ev @985
    _ZN14DataStructures4ListIPN6RakNet16FileListProgressEE13RemoveAtIndexEj @986
    _ZN14DataStructures4ListIPN6RakNet16FileListProgressEE13RemoveFromEndEj @987
    _ZN14DataStructures4ListIPN6RakNet16FileListProgressEE4PushERKS3_PKcj @988
    _ZN14DataStructures4ListIPN6RakNet16FileListProgressEE5ClearEbPKcj @989
    _ZN14DataStructures4ListIPN6RakNet16FileListProgressEE6InsertERKS3_PKcj @990
    _ZN14DataStructures4ListIPN6RakNet16FileListProgressEEC1Ev @991
    _ZN14DataStructures4ListIPN6RakNet16FileListProgressEED1Ev @992
    _ZN14DataStructures4ListIPN6RakNet16FileListProgressEEaSERKS4_ @993
    _ZN14DataStructures4ListIPN6RakNet16FileListTransfer19FileToPushRecipientEE13RemoveAtIndexEj @994
    _ZN14DataStructures4ListIPN6RakNet16FileListTransfer19FileToPushRecipientEE13RemoveFromEndEj @995
    _ZN14DataStructures4ListIPN6RakNet16FileListTransfer19FileToPushRecipientEE4PushERKS4_PKcj @996
    _ZN14DataStructures4ListIPN6RakNet16FileListTransfer19FileToPushRecipientEE5ClearEbPKcj @997
    _ZN14DataStructures4ListIPN6RakNet16FileListTransfer19FileToPushRecipientEE6InsertERKS4_PKcj @998
    _ZN14DataStructures4ListIPN6RakNet16FileListTransfer19FileToPushRecipientEEC1Ev @999
    _ZN14DataStructures4ListIPN6RakNet16FileListTransfer19FileToPushRecipientEED1Ev @1000
    _ZN14DataStructures4ListIPN6RakNet16PluginInterface2EE13RemoveFromEndEj @1001
    _ZN14DataStructures4ListIPN6RakNet16PluginInterface2EE6InsertERKS3_PKcj @1002
    _ZN14DataStructures4ListIPN6RakNet16PluginInterface2EEC1Ev @1003
    _ZN14DataStructures4ListIPN6RakNet16PluginInterface2EED1Ev @1004
    _ZN14DataStructures4ListIPN6RakNet17StatisticsHistory13TrackedObjectEE13RemoveAtIndexEj @1005
    _ZN14DataStructures4ListIPN6RakNet17StatisticsHistory13TrackedObjectEE13RemoveFromEndEj @1006
    _ZN14DataStructures4ListIPN6RakNet17StatisticsHistory13TrackedObjectEE5ClearEbPKcj @1007
    _ZN14DataStructures4ListIPN6RakNet17StatisticsHistory13TrackedObjectEE6InsertERKS4_jPKcj @1008
    _ZN14DataStructures4ListIPN6RakNet17StatisticsHistory13TrackedObjectEEC1Ev @1009
    _ZN14DataStructures4ListIPN6RakNet17StatisticsHistory13TrackedObjectEED1Ev @1010
    _ZN14DataStructures4ListIPN6RakNet17StatisticsHistory17TimeAndValueQueueEE4PushERKS4_PKcj @1011
    _ZN14DataStructures4ListIPN6RakNet17StatisticsHistory17TimeAndValueQueueEE5ClearEbPKcj @1012
    _ZN14DataStructures4ListIPN6RakNet17StatisticsHistory17TimeAndValueQueueEE6InsertERKS4_PKcj @1013
    _ZN14DataStructures4ListIPN6RakNet17StatisticsHistory17TimeAndValueQueueEE6InsertERKS4_jPKcj @1014
    _ZN14DataStructures4ListIPN6RakNet17StatisticsHistory17TimeAndValueQueueEEC1Ev @1015
    _ZN14DataStructures4ListIPN6RakNet17StatisticsHistory17TimeAndValueQueueEED1Ev @1016
    _ZN14DataStructures4ListIPN6RakNet18SplitPacketChannelEE13RemoveAtIndexEj @1017
    _ZN14DataStructures4ListIPN6RakNet18SplitPacketChannelEE13RemoveFromEndEj @1018
    _ZN14DataStructures4ListIPN6RakNet18SplitPacketChannelEE5ClearEbPKcj @1019
    _ZN14DataStructures4ListIPN6RakNet18SplitPacketChannelEE6InsertERKS3_PKcj @1020
    _ZN14DataStructures4ListIPN6RakNet18SplitPacketChannelEE6InsertERKS3_jPKcj @1021
    _ZN14DataStructures4ListIPN6RakNet18SplitPacketChannelEEC1Ev @1022
    _ZN14DataStructures4ListIPN6RakNet18SplitPacketChannelEED1Ev @1023
    _ZN14DataStructures4ListIPN6RakNet19FullyConnectedMesh215FCM2ParticipantEE3PopEv @1024
    _ZN14DataStructures4ListIPN6RakNet19FullyConnectedMesh215FCM2ParticipantEE4PushERKS4_PKcj @1025
    _ZN14DataStructures4ListIPN6RakNet19FullyConnectedMesh215FCM2ParticipantEE5ClearEbPKcj @1026
    _ZN14DataStructures4ListIPN6RakNet19FullyConnectedMesh215FCM2ParticipantEE6InsertERKS4_PKcj @1027
    _ZN14DataStructures4ListIPN6RakNet19FullyConnectedMesh215FCM2ParticipantEE6InsertERKS4_jPKcj @1028
    _ZN14DataStructures4ListIPN6RakNet19FullyConnectedMesh215FCM2ParticipantEEC1Ev @1029
    _ZN14DataStructures4ListIPN6RakNet19FullyConnectedMesh215FCM2ParticipantEED1Ev @1030
    _ZN14DataStructures4ListIPN6RakNet19FullyConnectedMesh222VerifiedJoinInProgressEE13RemoveAtIndexEj @1031
    _ZN14DataStructures4ListIPN6RakNet19FullyConnectedMesh222VerifiedJoinInProgressEE13RemoveFromEndEj @1032
    _ZN14DataStructures4ListIPN6RakNet19FullyConnectedMesh222VerifiedJoinInProgressEE4PushERKS4_PKcj @1033
    _ZN14DataStructures4ListIPN6RakNet19FullyConnectedMesh222VerifiedJoinInProgressEE5ClearEbPKcj @1034
    _ZN14DataStructures4ListIPN6RakNet19FullyConnectedMesh222VerifiedJoinInProgressEE6InsertERKS4_PKcj @1035
    _ZN14DataStructures4ListIPN6RakNet19FullyConnectedMesh222VerifiedJoinInProgressEEC1Ev @1036
    _ZN14DataStructures4ListIPN6RakNet19FullyConnectedMesh222VerifiedJoinInProgressEED1Ev @1037
    _ZN14DataStructures4ListIPN6RakNet19UDPProxyCoordinator17ForwardingRequestEE13RemoveAtIndexEj @1038
    _ZN14DataStructures4ListIPN6RakNet19UDPProxyCoordinator17ForwardingRequestEE13RemoveFromEndEj @1039
    _ZN14DataStructures4ListIPN6RakNet19UDPProxyCoordinator17ForwardingRequestEE5ClearEbPKcj @1040
    _ZN14DataStructures4ListIPN6RakNet19UDPProxyCoordinator17ForwardingRequestEE6InsertERKS4_jPKcj @1041
    _ZN14DataStructures4ListIPN6RakNet19UDPProxyCoordinator17ForwardingRequestEEC1Ev @1042
    _ZN14DataStructures4ListIPN6RakNet19UDPProxyCoordinator17ForwardingRequestEED1Ev @1043
    _ZN14DataStructures4ListIPN6RakNet20TwoWayAuthentication27NonceAndRemoteSystemRequestEE13RemoveAtIndexEj @1044
    _ZN14DataStructures4ListIPN6RakNet20TwoWayAuthentication27NonceAndRemoteSystemRequestEE13RemoveFromEndEj @1045
    _ZN14DataStructures4ListIPN6RakNet20TwoWayAuthentication27NonceAndRemoteSystemRequestEE4PushERKS4_PKcj @1046
    _ZN14DataStructures4ListIPN6RakNet20TwoWayAuthentication27NonceAndRemoteSystemRequestEE5ClearEbPKcj @1047
    _ZN14DataStructures4ListIPN6RakNet20TwoWayAuthentication27NonceAndRemoteSystemRequestEE6InsertERKS4_PKcj @1048
    _ZN14DataStructures4ListIPN6RakNet20TwoWayAuthentication27NonceAndRemoteSystemRequestEEC1Ev @1049
    _ZN14DataStructures4ListIPN6RakNet20TwoWayAuthentication27NonceAndRemoteSystemRequestEED1Ev @1050
    _ZN14DataStructures4ListIPN6RakNet21NatPunchthroughServer17ConnectionAttemptEE13RemoveAtIndexEj @1051
    _ZN14DataStructures4ListIPN6RakNet21NatPunchthroughServer17ConnectionAttemptEE13RemoveFromEndEj @1052
    _ZN14DataStructures4ListIPN6RakNet21NatPunchthroughServer17ConnectionAttemptEE6InsertERKS4_PKcj @1053
    _ZN14DataStructures4ListIPN6RakNet21NatPunchthroughServer17ConnectionAttemptEEC1Ev @1054
    _ZN14DataStructures4ListIPN6RakNet21NatPunchthroughServer17ConnectionAttemptEED1Ev @1055
    _ZN14DataStructures4ListIPN6RakNet21NatPunchthroughServer4UserEE13RemoveAtIndexEj @1056
    _ZN14DataStructures4ListIPN6RakNet21NatPunchthroughServer4UserEE13RemoveFromEndEj @1057
    _ZN14DataStructures4ListIPN6RakNet21NatPunchthroughServer4UserEE5ClearEbPKcj @1058
    _ZN14DataStructures4ListIPN6RakNet21NatPunchthroughServer4UserEE6InsertERKS4_PKcj @1059
    _ZN14DataStructures4ListIPN6RakNet21NatPunchthroughServer4UserEE6InsertERKS4_jPKcj @1060
    _ZN14DataStructures4ListIPN6RakNet21NatPunchthroughServer4UserEEC1Ev @1061
    _ZN14DataStructures4ListIPN6RakNet21NatPunchthroughServer4UserEED1Ev @1062
    _ZN14DataStructures4ListIPN6RakNet22CloudServerQueryFilterEE13RemoveAtIndexEj @1063
    _ZN14DataStructures4ListIPN6RakNet22CloudServerQueryFilterEE13RemoveFromEndEj @1064
    _ZN14DataStructures4ListIPN6RakNet22CloudServerQueryFilterEE4PushERKS3_PKcj @1065
    _ZN14DataStructures4ListIPN6RakNet22CloudServerQueryFilterEE5ClearEbPKcj @1066
    _ZN14DataStructures4ListIPN6RakNet22CloudServerQueryFilterEE6InsertERKS3_PKcj @1067
    _ZN14DataStructures4ListIPN6RakNet22CloudServerQueryFilterEEC1Ev @1068
    _ZN14DataStructures4ListIPN6RakNet22CloudServerQueryFilterEED1Ev @1069
    _ZN14DataStructures4ListIPN6RakNet22CommandParserInterfaceEE13RemoveFromEndEj @1070
    _ZN14DataStructures4ListIPN6RakNet22CommandParserInterfaceEE6InsertERKS3_PKcj @1071
    _ZN14DataStructures4ListIPN6RakNet22CommandParserInterfaceEEC1Ev @1072
    _ZN14DataStructures4ListIPN6RakNet22CommandParserInterfaceEED1Ev @1073
    _ZN14DataStructures4ListIPN6RakNet23LastSerializationResultEE13RemoveAtIndexEj @1074
    _ZN14DataStructures4ListIPN6RakNet23LastSerializationResultEE13RemoveFromEndEj @1075
    _ZN14DataStructures4ListIPN6RakNet23LastSerializationResultEE4PushERKS3_PKcj @1076
    _ZN14DataStructures4ListIPN6RakNet23LastSerializationResultEE5ClearEbPKcj @1077
    _ZN14DataStructures4ListIPN6RakNet23LastSerializationResultEE6InsertERKS3_PKcj @1078
    _ZN14DataStructures4ListIPN6RakNet23LastSerializationResultEE6InsertERKS3_jPKcj @1079
    _ZN14DataStructures4ListIPN6RakNet23LastSerializationResultEEC1Ev @1080
    _ZN14DataStructures4ListIPN6RakNet23LastSerializationResultEED1Ev @1081
    _ZN14DataStructures4ListIPN6RakNet23Rackspace2EventCallbackEE13RemoveAtIndexEj @1082
    _ZN14DataStructures4ListIPN6RakNet23Rackspace2EventCallbackEE13RemoveFromEndEj @1083
    _ZN14DataStructures4ListIPN6RakNet23Rackspace2EventCallbackEE4PushERKS3_PKcj @1084
    _ZN14DataStructures4ListIPN6RakNet23Rackspace2EventCallbackEE5ClearEbPKcj @1085
    _ZN14DataStructures4ListIPN6RakNet23Rackspace2EventCallbackEE6InsertERKS3_PKcj @1086
    _ZN14DataStructures4ListIPN6RakNet23Rackspace2EventCallbackEEC1Ev @1087
    _ZN14DataStructures4ListIPN6RakNet23Rackspace2EventCallbackEED1Ev @1088
    _ZN14DataStructures4ListIPN6RakNet23VariableDeltaSerializer20ChangedVariablesListEE13RemoveAtIndexEj @1089
    _ZN14DataStructures4ListIPN6RakNet23VariableDeltaSerializer20ChangedVariablesListEE13RemoveFromEndEj @1090
    _ZN14DataStructures4ListIPN6RakNet23VariableDeltaSerializer20ChangedVariablesListEE5ClearEbPKcj @1091
    _ZN14DataStructures4ListIPN6RakNet23VariableDeltaSerializer20ChangedVariablesListEE6InsertERKS4_PKcj @1092
    _ZN14DataStructures4ListIPN6RakNet23VariableDeltaSerializer20ChangedVariablesListEE6InsertERKS4_jPKcj @1093
    _ZN14DataStructures4ListIPN6RakNet23VariableDeltaSerializer20ChangedVariablesListEEC1Ev @1094
    _ZN14DataStructures4ListIPN6RakNet23VariableDeltaSerializer20ChangedVariablesListEED1Ev @1095
    _ZN14DataStructures4ListIPN6RakNet23VariableDeltaSerializer27RemoteSystemVariableHistoryEE17RemoveAtIndexFastEj @1096
    _ZN14DataStructures4ListIPN6RakNet23VariableDeltaSerializer27RemoteSystemVariableHistoryEE4PushERKS4_PKcj @1097
    _ZN14DataStructures4ListIPN6RakNet23VariableDeltaSerializer27RemoteSystemVariableHistoryEE5ClearEbPKcj @1098
    _ZN14DataStructures4ListIPN6RakNet23VariableDeltaSerializer27RemoteSystemVariableHistoryEE6InsertERKS4_PKcj @1099
    _ZN14DataStructures4ListIPN6RakNet23VariableDeltaSerializer27RemoteSystemVariableHistoryEEC1Ev @1100
    _ZN14DataStructures4ListIPN6RakNet23VariableDeltaSerializer27RemoteSystemVariableHistoryEED1Ev @1101
    _ZN14DataStructures4ListIPN6RakNet4RPC413LocalCallbackEE13RemoveAtIndexEj @1102
    _ZN14DataStructures4ListIPN6RakNet4RPC413LocalCallbackEE13RemoveFromEndEj @1103
    _ZN14DataStructures4ListIPN6RakNet4RPC413LocalCallbackEE5ClearEbPKcj @1104
    _ZN14DataStructures4ListIPN6RakNet4RPC413LocalCallbackEE6InsertERKS4_jPKcj @1105
    _ZN14DataStructures4ListIPN6RakNet4RPC413LocalCallbackEEC1Ev @1106
    _ZN14DataStructures4ListIPN6RakNet4RPC413LocalCallbackEED1Ev @1107
    _ZN14DataStructures4ListIPN6RakNet4RPC49LocalSlotEE4PushERKS4_PKcj @1108
    _ZN14DataStructures4ListIPN6RakNet4RPC49LocalSlotEE5ClearEbPKcj @1109
    _ZN14DataStructures4ListIPN6RakNet4RPC49LocalSlotEE6InsertERKS4_PKcj @1110
    _ZN14DataStructures4ListIPN6RakNet4RPC49LocalSlotEEC1Ev @1111
    _ZN14DataStructures4ListIPN6RakNet4RPC49LocalSlotEED1Ev @1112
    _ZN14DataStructures4ListIPN6RakNet7RakPeer9BanStructEE13RemoveAtIndexEj @1113
    _ZN14DataStructures4ListIPN6RakNet7RakPeer9BanStructEE13RemoveFromEndEj @1114
    _ZN14DataStructures4ListIPN6RakNet7RakPeer9BanStructEE5ClearEbPKcj @1115
    _ZN14DataStructures4ListIPN6RakNet7RakPeer9BanStructEE6InsertERKS4_PKcj @1116
    _ZN14DataStructures4ListIPN6RakNet7RakPeer9BanStructEEC1Ev @1117
    _ZN14DataStructures4ListIPN6RakNet7RakPeer9BanStructEED1Ev @1118
    _ZN14DataStructures4ListIPN6RakNet7Router215ConnnectRequestEE17RemoveAtIndexFastEj @1119
    _ZN14DataStructures4ListIPN6RakNet7Router215ConnnectRequestEE4PushERKS4_PKcj @1120
    _ZN14DataStructures4ListIPN6RakNet7Router215ConnnectRequestEE5ClearEbPKcj @1121
    _ZN14DataStructures4ListIPN6RakNet7Router215ConnnectRequestEE6InsertERKS4_PKcj @1122
    _ZN14DataStructures4ListIPN6RakNet7Router215ConnnectRequestEEC1Ev @1123
    _ZN14DataStructures4ListIPN6RakNet7Router215ConnnectRequestEED1Ev @1124
    _ZN14DataStructures4ListIPN6RakNet7TM_TeamEE13RemoveAtIndexEj @1125
    _ZN14DataStructures4ListIPN6RakNet7TM_TeamEE13RemoveFromEndEj @1126
    _ZN14DataStructures4ListIPN6RakNet7TM_TeamEE17RemoveAtIndexFastEj @1127
    _ZN14DataStructures4ListIPN6RakNet7TM_TeamEE4PushERKS3_PKcj @1128
    _ZN14DataStructures4ListIPN6RakNet7TM_TeamEE5ClearEbPKcj @1129
    _ZN14DataStructures4ListIPN6RakNet7TM_TeamEE6InsertERKS3_PKcj @1130
    _ZN14DataStructures4ListIPN6RakNet7TM_TeamEEC1ERKS4_ @1131
    _ZN14DataStructures4ListIPN6RakNet7TM_TeamEEC1Ev @1132
    _ZN14DataStructures4ListIPN6RakNet7TM_TeamEED1Ev @1133
    _ZN14DataStructures4ListIPN6RakNet7TM_TeamEEaSERKS4_ @1134
    _ZN14DataStructures4ListIPN6RakNet8Replica3EE13RemoveAtIndexEj @1135
    _ZN14DataStructures4ListIPN6RakNet8Replica3EE13RemoveFromEndEj @1136
    _ZN14DataStructures4ListIPN6RakNet8Replica3EE4PushERKS3_PKcj @1137
    _ZN14DataStructures4ListIPN6RakNet8Replica3EE5ClearEbPKcj @1138
    _ZN14DataStructures4ListIPN6RakNet8Replica3EE6InsertERKS3_PKcj @1139
    _ZN14DataStructures4ListIPN6RakNet8Replica3EEC1Ev @1140
    _ZN14DataStructures4ListIPN6RakNet8Replica3EED1Ev @1141
    _ZN14DataStructures4ListIPN6RakNet8Replica3EEaSERKS4_ @1142
    _ZN14DataStructures4ListIPN6RakNet8TM_WorldEE17RemoveAtIndexFastEj @1143
    _ZN14DataStructures4ListIPN6RakNet8TM_WorldEE4PushERKS3_PKcj @1144
    _ZN14DataStructures4ListIPN6RakNet8TM_WorldEE5ClearEbPKcj @1145
    _ZN14DataStructures4ListIPN6RakNet8TM_WorldEE6InsertERKS3_PKcj @1146
    _ZN14DataStructures4ListIPN6RakNet8TM_WorldEEC1Ev @1147
    _ZN14DataStructures4ListIPN6RakNet8TM_WorldEED1Ev @1148
    _ZN14DataStructures4ListIPN6RakNet9BitStreamEE4PushERKS3_PKcj @1149
    _ZN14DataStructures4ListIPN6RakNet9BitStreamEE6InsertERKS3_PKcj @1150
    _ZN14DataStructures4ListIPN6RakNet9FilterSetEE13RemoveAtIndexEj @1151
    _ZN14DataStructures4ListIPN6RakNet9FilterSetEE13RemoveFromEndEj @1152
    _ZN14DataStructures4ListIPN6RakNet9FilterSetEE5ClearEbPKcj @1153
    _ZN14DataStructures4ListIPN6RakNet9FilterSetEE6InsertERKS3_PKcj @1154
    _ZN14DataStructures4ListIPN6RakNet9FilterSetEE6InsertERKS3_jPKcj @1155
    _ZN14DataStructures4ListIPN6RakNet9FilterSetEEC1Ev @1156
    _ZN14DataStructures4ListIPN6RakNet9FilterSetEED1Ev @1157
    _ZN14DataStructures4ListIPN6RakNet9RakString12SharedStringEE13RemoveAtIndexEj @1158
    _ZN14DataStructures4ListIPN6RakNet9RakString12SharedStringEE13RemoveFromEndEj @1159
    _ZN14DataStructures4ListIPN6RakNet9RakString12SharedStringEE5ClearEbPKcj @1160
    _ZN14DataStructures4ListIPN6RakNet9RakString12SharedStringEE6InsertERKS4_PKcj @1161
    _ZN14DataStructures4ListIPN6RakNet9RakString12SharedStringEEC1Ev @1162
    _ZN14DataStructures4ListIPN6RakNet9RakString12SharedStringEED1Ev @1163
    _ZN14DataStructures4ListIPNS_5Table3RowEE5ClearEbPKcj @1164
    _ZN14DataStructures4ListIPNS_5Table3RowEE6InsertERKS3_PKcj @1165
    _ZN14DataStructures4ListIPNS_5Table3RowEE6InsertERKS3_jPKcj @1166
    _ZN14DataStructures4ListIPNS_5Table3RowEEC1Ev @1167
    _ZN14DataStructures4ListIPNS_5Table3RowEED1Ev @1168
    _ZN14DataStructures4ListIPNS_5Table4CellEE13RemoveAtIndexEj @1169
    _ZN14DataStructures4ListIPNS_5Table4CellEE13RemoveFromEndEj @1170
    _ZN14DataStructures4ListIPNS_5Table4CellEE6InsertERKS3_PKcj @1171
    _ZN14DataStructures4ListIPNS_5Table4CellEEC1Ev @1172
    _ZN14DataStructures4ListIPNS_5Table4CellEED1Ev @1173
    _ZN14DataStructures4ListIPvE5ClearEbPKcj @1174
    _ZN14DataStructures4ListIPvE6InsertERKS1_PKcj @1175
    _ZN14DataStructures4ListIPvEC1Ev @1176
    _ZN14DataStructures4ListIPvED1Ev @1177
    _ZN14DataStructures4ListIbE11PreallocateEjPKcj @1178
    _ZN14DataStructures4ListIbE4PushERKbPKcj @1179
    _ZN14DataStructures4ListIbE5ClearEbPKcj @1180
    _ZN14DataStructures4ListIbE6InsertERKbPKcj @1181
    _ZN14DataStructures4ListIbEC1Ev @1182
    _ZN14DataStructures4ListIbED1Ev @1183
    _ZN14DataStructures4ListIhE4PushERKhPKcj @1184
    _ZN14DataStructures4ListIhE5ClearEbPKcj @1185
    _ZN14DataStructures4ListIhE6InsertERKhPKcj @1186
    _ZN14DataStructures4ListIhEC1Ev @1187
    _ZN14DataStructures4ListIhED1Ev @1188
    _ZN14DataStructures4ListIjE11PreallocateEjPKcj @1189
    _ZN14DataStructures4ListIjE17RemoveAtIndexFastEj @1190
    _ZN14DataStructures4ListIjE4PushERKjPKcj @1191
    _ZN14DataStructures4ListIjE5ClearEbPKcj @1192
    _ZN14DataStructures4ListIjE6InsertERKjPKcj @1193
    _ZN14DataStructures4ListIjEC1ERKS1_ @1194
    _ZN14DataStructures4ListIjEC1Ev @1195
    _ZN14DataStructures4ListIjED1Ev @1196
    _ZN14DataStructures4ListItE7ReplaceERKttjPKcj @1197
    _ZN14DataStructures4ListItEC1Ev @1198
    _ZN14DataStructures4ListItED1Ev @1199
    _ZN14DataStructures4ListIyE4PushERKyPKcj @1200
    _ZN14DataStructures4ListIyE6InsertERKyPKcj @1201
    _ZN14DataStructures4ListIyEC1Ev @1202
    _ZN14DataStructures4ListIyED1Ev @1203
    _ZN14DataStructures5QueueIN6RakNet10BPSTracker13TimeAndValue2EE3PopEv @1204
    _ZN14DataStructures5QueueIN6RakNet10BPSTracker13TimeAndValue2EE4PushERKS3_PKcj @1205
    _ZN14DataStructures5QueueIN6RakNet10BPSTracker13TimeAndValue2EE5ClearEPKcj @1206
    _ZN14DataStructures5QueueIN6RakNet10BPSTracker13TimeAndValue2EEC1Ev @1207
    _ZN14DataStructures5QueueIN6RakNet10BPSTracker13TimeAndValue2EED1Ev @1208
    _ZN14DataStructures5QueueIN6RakNet12UDPForwarder27StartForwardingOutputStructEE13RemoveAtIndexEj @1209
    _ZN14DataStructures5QueueIN6RakNet12UDPForwarder27StartForwardingOutputStructEE4PushERKS3_PKcj @1210
    _ZN14DataStructures5QueueIN6RakNet12UDPForwarder27StartForwardingOutputStructEEC1Ev @1211
    _ZN14DataStructures5QueueIN6RakNet12UDPForwarder27StartForwardingOutputStructEED1Ev @1212
    _ZN14DataStructures5QueueIN6RakNet13SystemAddressEE3PopEv @1213
    _ZN14DataStructures5QueueIN6RakNet13SystemAddressEE4PushERKS2_PKcj @1214
    _ZN14DataStructures5QueueIN6RakNet13SystemAddressEE5ClearEPKcj @1215
    _ZN14DataStructures5QueueIN6RakNet13SystemAddressEEC1Ev @1216
    _ZN14DataStructures5QueueIN6RakNet13SystemAddressEED1Ev @1217
    _ZN14DataStructures5QueueIN6RakNet14HTTPConnection11BadResponseEE3PopEv @1218
    _ZN14DataStructures5QueueIN6RakNet14HTTPConnection11BadResponseEE4PushERKS3_PKcj @1219
    _ZN14DataStructures5QueueIN6RakNet14HTTPConnection11BadResponseEEC1Ev @1220
    _ZN14DataStructures5QueueIN6RakNet14HTTPConnection11BadResponseEED1Ev @1221
    _ZN14DataStructures5QueueIN6RakNet14HTTPConnection15OutgoingCommandEE3PopEv @1222
    _ZN14DataStructures5QueueIN6RakNet14HTTPConnection15OutgoingCommandEE4PushERKS3_PKcj @1223
    _ZN14DataStructures5QueueIN6RakNet14HTTPConnection15OutgoingCommandEEC1Ev @1224
    _ZN14DataStructures5QueueIN6RakNet14HTTPConnection15OutgoingCommandEED1Ev @1225
    _ZN14DataStructures5QueueIN6RakNet16FileListTransfer10ThreadDataEE13RemoveAtIndexEj @1226
    _ZN14DataStructures5QueueIN6RakNet16FileListTransfer10ThreadDataEE3PopEv @1227
    _ZN14DataStructures5QueueIN6RakNet16FileListTransfer10ThreadDataEE4PushERKS3_PKcj @1228
    _ZN14DataStructures5QueueIN6RakNet16FileListTransfer10ThreadDataEE5ClearEPKcj @1229
    _ZN14DataStructures5QueueIN6RakNet16FileListTransfer10ThreadDataEEC1Ev @1230
    _ZN14DataStructures5QueueIN6RakNet16FileListTransfer10ThreadDataEED1Ev @1231
    _ZN14DataStructures5QueueIN6RakNet16ReliabilityLayer19DatagramHistoryNodeEE3PopEv @1232
    _ZN14DataStructures5QueueIN6RakNet16ReliabilityLayer19DatagramHistoryNodeEE4PushERKS3_PKcj @1233
    _ZN14DataStructures5QueueIN6RakNet16ReliabilityLayer19DatagramHistoryNodeEEC1Ev @1234
    _ZN14DataStructures5QueueIN6RakNet16ReliabilityLayer19DatagramHistoryNodeEED1Ev @1235
    _ZN14DataStructures5QueueIN6RakNet17StatisticsHistory12TimeAndValueEE10PushAtHeadERKS3_jPKcj @1236
    _ZN14DataStructures5QueueIN6RakNet17StatisticsHistory12TimeAndValueEE3PopEv @1237
    _ZN14DataStructures5QueueIN6RakNet17StatisticsHistory12TimeAndValueEE4PushERKS3_PKcj @1238
    _ZN14DataStructures5QueueIN6RakNet17StatisticsHistory12TimeAndValueEE5ClearEPKcj @1239
    _ZN14DataStructures5QueueIN6RakNet17StatisticsHistory12TimeAndValueEE7PopTailEv @1240
    _ZN14DataStructures5QueueIN6RakNet17StatisticsHistory12TimeAndValueEEC1Ev @1241
    _ZN14DataStructures5QueueIN6RakNet17StatisticsHistory12TimeAndValueEED1Ev @1242
    _ZN14DataStructures5QueueIN6RakNet17StatisticsHistory12TimeAndValueEEaSERKS4_ @1243
    _ZN14DataStructures5QueueIN6RakNet20TwoWayAuthentication16PendingChallengeEE13RemoveAtIndexEj @1244
    _ZN14DataStructures5QueueIN6RakNet20TwoWayAuthentication16PendingChallengeEE3PopEv @1245
    _ZN14DataStructures5QueueIN6RakNet20TwoWayAuthentication16PendingChallengeEE4PushERKS3_PKcj @1246
    _ZN14DataStructures5QueueIN6RakNet20TwoWayAuthentication16PendingChallengeEE5ClearEPKcj @1247
    _ZN14DataStructures5QueueIN6RakNet20TwoWayAuthentication16PendingChallengeEEC1Ev @1248
    _ZN14DataStructures5QueueIN6RakNet20TwoWayAuthentication16PendingChallengeEED1Ev @1249
    _ZN14DataStructures5QueueIN6RakNet21NatPunchthroughClient9DSTAndFacEE3PopEv @1250
    _ZN14DataStructures5QueueIN6RakNet21NatPunchthroughClient9DSTAndFacEE4PushERKS3_PKcj @1251
    _ZN14DataStructures5QueueIN6RakNet21NatPunchthroughClient9DSTAndFacEE5ClearEPKcj @1252
    _ZN14DataStructures5QueueIN6RakNet21NatPunchthroughClient9DSTAndFacEEC1Ev @1253
    _ZN14DataStructures5QueueIN6RakNet21NatPunchthroughClient9DSTAndFacEED1Ev @1254
    _ZN14DataStructures5QueueIN6RakNet9RakStringEE3PopEv @1255
    _ZN14DataStructures5QueueIN6RakNet9RakStringEE4PushERKS2_PKcj @1256
    _ZN14DataStructures5QueueIN6RakNet9RakStringEEC1Ev @1257
    _ZN14DataStructures5QueueIN6RakNet9RakStringEED1Ev @1258
    _ZN14DataStructures5QueueIP23HuffmanEncodingTreeNodeE3PopEv @1259
    _ZN14DataStructures5QueueIP23HuffmanEncodingTreeNodeE4PushERKS2_PKcj @1260
    _ZN14DataStructures5QueueIP23HuffmanEncodingTreeNodeEC1Ev @1261
    _ZN14DataStructures5QueueIP23HuffmanEncodingTreeNodeED1Ev @1262
    _ZN14DataStructures5QueueIPFiN6RakNet16FileListTransfer10ThreadDataEPbPvEE13RemoveAtIndexEj @1263
    _ZN14DataStructures5QueueIPFiN6RakNet16FileListTransfer10ThreadDataEPbPvEE3PopEv @1264
    _ZN14DataStructures5QueueIPFiN6RakNet16FileListTransfer10ThreadDataEPbPvEE4PushERKS7_PKcj @1265
    _ZN14DataStructures5QueueIPFiN6RakNet16FileListTransfer10ThreadDataEPbPvEE5ClearEPKcj @1266
    _ZN14DataStructures5QueueIPFiN6RakNet16FileListTransfer10ThreadDataEPbPvEEC1Ev @1267
    _ZN14DataStructures5QueueIPFiN6RakNet16FileListTransfer10ThreadDataEPbPvEED1Ev @1268
    _ZN14DataStructures5QueueIPN6RakNet12UDPForwarder20StopForwardingStructEE3PopEv @1269
    _ZN14DataStructures5QueueIPN6RakNet12UDPForwarder20StopForwardingStructEE4PushERKS4_PKcj @1270
    _ZN14DataStructures5QueueIPN6RakNet12UDPForwarder20StopForwardingStructEEC1Ev @1271
    _ZN14DataStructures5QueueIPN6RakNet12UDPForwarder20StopForwardingStructEED1Ev @1272
    _ZN14DataStructures5QueueIPN6RakNet12UDPForwarder26StartForwardingInputStructEE3PopEv @1273
    _ZN14DataStructures5QueueIPN6RakNet12UDPForwarder26StartForwardingInputStructEE4PushERKS4_PKcj @1274
    _ZN14DataStructures5QueueIPN6RakNet12UDPForwarder26StartForwardingInputStructEEC1Ev @1275
    _ZN14DataStructures5QueueIPN6RakNet12UDPForwarder26StartForwardingInputStructEED1Ev @1276
    _ZN14DataStructures5QueueIPN6RakNet13SystemAddressEE3PopEv @1277
    _ZN14DataStructures5QueueIPN6RakNet13SystemAddressEE4PushERKS3_PKcj @1278
    _ZN14DataStructures5QueueIPN6RakNet13SystemAddressEE5ClearEPKcj @1279
    _ZN14DataStructures5QueueIPN6RakNet13SystemAddressEEC1Ev @1280
    _ZN14DataStructures5QueueIPN6RakNet13SystemAddressEED1Ev @1281
    _ZN14DataStructures5QueueIPN6RakNet14InternalPacketEE23ClearAndForceAllocationEiPKcj @1282
    _ZN14DataStructures5QueueIPN6RakNet14InternalPacketEE3PopEv @1283
    _ZN14DataStructures5QueueIPN6RakNet14InternalPacketEE4PushERKS3_PKcj @1284
    _ZN14DataStructures5QueueIPN6RakNet14InternalPacketEEC1Ev @1285
    _ZN14DataStructures5QueueIPN6RakNet14InternalPacketEED1Ev @1286
    _ZN14DataStructures5QueueIPN6RakNet14RNS2RecvStructEE3PopEv @1287
    _ZN14DataStructures5QueueIPN6RakNet14RNS2RecvStructEE4PushERKS3_PKcj @1288
    _ZN14DataStructures5QueueIPN6RakNet14RNS2RecvStructEEC1Ev @1289
    _ZN14DataStructures5QueueIPN6RakNet14RNS2RecvStructEED1Ev @1290
    _ZN14DataStructures5QueueIPN6RakNet15HTTPConnection27RequestEE13RemoveAtIndexEj @1291
    _ZN14DataStructures5QueueIPN6RakNet15HTTPConnection27RequestEE4PushERKS4_PKcj @1292
    _ZN14DataStructures5QueueIPN6RakNet15HTTPConnection27RequestEEC1Ev @1293
    _ZN14DataStructures5QueueIPN6RakNet15HTTPConnection27RequestEED1Ev @1294
    _ZN14DataStructures5QueueIPN6RakNet16FileListTransfer10FileToPushEE10PushAtHeadERKS4_jPKcj @1295
    _ZN14DataStructures5QueueIPN6RakNet16FileListTransfer10FileToPushEE3PopEv @1296
    _ZN14DataStructures5QueueIPN6RakNet16FileListTransfer10FileToPushEE4PushERKS4_PKcj @1297
    _ZN14DataStructures5QueueIPN6RakNet16FileListTransfer10FileToPushEEC1Ev @1298
    _ZN14DataStructures5QueueIPN6RakNet16FileListTransfer10FileToPushEED1Ev @1299
    _ZN14DataStructures5QueueIPN6RakNet6PacketEE10PushAtHeadERKS3_jPKcj @1300
    _ZN14DataStructures5QueueIPN6RakNet6PacketEE3PopEv @1301
    _ZN14DataStructures5QueueIPN6RakNet6PacketEE4PushERKS3_PKcj @1302
    _ZN14DataStructures5QueueIPN6RakNet6PacketEE5ClearEPKcj @1303
    _ZN14DataStructures5QueueIPN6RakNet6PacketEEC1Ev @1304
    _ZN14DataStructures5QueueIPN6RakNet6PacketEED1Ev @1305
    _ZN14DataStructures5QueueIPN6RakNet7RakPeer17SocketQueryOutputEE3PopEv @1306
    _ZN14DataStructures5QueueIPN6RakNet7RakPeer17SocketQueryOutputEE4PushERKS4_PKcj @1307
    _ZN14DataStructures5QueueIPN6RakNet7RakPeer17SocketQueryOutputEE5ClearEPKcj @1308
    _ZN14DataStructures5QueueIPN6RakNet7RakPeer17SocketQueryOutputEEC1Ev @1309
    _ZN14DataStructures5QueueIPN6RakNet7RakPeer17SocketQueryOutputEED1Ev @1310
    _ZN14DataStructures5QueueIPN6RakNet7RakPeer21BufferedCommandStructEE3PopEv @1311
    _ZN14DataStructures5QueueIPN6RakNet7RakPeer21BufferedCommandStructEE4PushERKS4_PKcj @1312
    _ZN14DataStructures5QueueIPN6RakNet7RakPeer21BufferedCommandStructEE5ClearEPKcj @1313
    _ZN14DataStructures5QueueIPN6RakNet7RakPeer21BufferedCommandStructEEC1Ev @1314
    _ZN14DataStructures5QueueIPN6RakNet7RakPeer21BufferedCommandStructEED1Ev @1315
    _ZN14DataStructures5QueueIPN6RakNet7RakPeer25RequestedConnectionStructEE13RemoveAtIndexEj @1316
    _ZN14DataStructures5QueueIPN6RakNet7RakPeer25RequestedConnectionStructEE3PopEv @1317
    _ZN14DataStructures5QueueIPN6RakNet7RakPeer25RequestedConnectionStructEE4PushERKS4_PKcj @1318
    _ZN14DataStructures5QueueIPN6RakNet7RakPeer25RequestedConnectionStructEEC1Ev @1319
    _ZN14DataStructures5QueueIPN6RakNet7RakPeer25RequestedConnectionStructEED1Ev @1320
    _ZN14DataStructures5QueueIPNS_4PageIjPNS_5Table3RowELi16EEEE3PopEv @1321
    _ZN14DataStructures5QueueIPNS_4PageIjPNS_5Table3RowELi16EEEE4PushERKS6_PKcj @1322
    _ZN14DataStructures5QueueIPNS_4PageIjPNS_5Table3RowELi16EEEEC1Ev @1323
    _ZN14DataStructures5QueueIPNS_4PageIjPNS_5Table3RowELi16EEEED1Ev @1324
    _ZN14DataStructures5QueueIPPN6RakNet12RemoteClientEE5ClearEPKcj @1325
    _ZN14DataStructures5QueueIPPN6RakNet12RemoteClientEEC1Ev @1326
    _ZN14DataStructures5QueueIPPN6RakNet12RemoteClientEED1Ev @1327
    _ZN14DataStructures5QueueIPcE3PopEv @1328
    _ZN14DataStructures5QueueIPcE4PushERKS1_PKcj @1329
    _ZN14DataStructures5QueueIPcEC1Ev @1330
    _ZN14DataStructures5QueueIPcED1Ev @1331
    _ZN14DataStructures5QueueIbE23ClearAndForceAllocationEiPKcj @1332
    _ZN14DataStructures5QueueIbE3PopEv @1333
    _ZN14DataStructures5QueueIbE4PushERKbPKcj @1334
    _ZN14DataStructures5QueueIbE8CompressEPKcj @1335
    _ZN14DataStructures5QueueIbEC1Ev @1336
    _ZN14DataStructures5QueueIbED1Ev @1337
    _ZN14DataStructures5QueueIiE4PushERKiPKcj @1338
    _ZN14DataStructures5QueueIiE5ClearEPKcj @1339
    _ZN14DataStructures5QueueIiEC1Ev @1340
    _ZN14DataStructures5QueueIiED1Ev @1341
    _ZN14DataStructures5QueueIjE3PopEv @1342
    _ZN14DataStructures5QueueIjE4PushERKjPKcj @1343
    _ZN14DataStructures5QueueIjEC1Ev @1344
    _ZN14DataStructures5QueueIjED1Ev @1345
    _ZN14DataStructures5Table10QueryTableEPjjPNS0_11FilterQueryEjS1_jPS0_ @1346
    _ZN14DataStructures5Table10RemoveRowsEPS0_ @1347
    _ZN14DataStructures5Table10UpdateCellEjjPc @1348
    _ZN14DataStructures5Table10UpdateCellEjji @1349
    _ZN14DataStructures5Table10UpdateCellEjjiPc @1350
    _ZN14DataStructures5Table11FilterQueryC1EjPNS0_4CellENS0_15FilterQueryTypeE @1351
    _ZN14DataStructures5Table11FilterQueryC1Ev @1352
    _ZN14DataStructures5Table11FilterQueryC2EjPNS0_4CellENS0_15FilterQueryTypeE @1353
    _ZN14DataStructures5Table11FilterQueryC2Ev @1354
    _ZN14DataStructures5Table11FilterQueryD1Ev @1355
    _ZN14DataStructures5Table11FilterQueryD2Ev @1356
    _ZN14DataStructures5Table11GetListHeadEv @1357
    _ZN14DataStructures5Table12RemoveColumnEj @1358
    _ZN14DataStructures5Table13AddRowColumnsEjPNS0_3RowENS_4ListIjEE @1359
    _ZN14DataStructures5Table16ColumnDescriptorC1EPKcNS0_10ColumnTypeE @1360
    _ZN14DataStructures5Table16ColumnDescriptorC1Ev @1361
    _ZN14DataStructures5Table16ColumnDescriptorC2EPKcNS0_10ColumnTypeE @1362
    _ZN14DataStructures5Table16ColumnDescriptorC2Ev @1363
    _ZN14DataStructures5Table16ColumnDescriptorD1Ev @1364
    _ZN14DataStructures5Table16ColumnDescriptorD2Ev @1365
    _ZN14DataStructures5Table17UpdateCellByIndexEjjPc @1366
    _ZN14DataStructures5Table17UpdateCellByIndexEjji @1367
    _ZN14DataStructures5Table17UpdateCellByIndexEjjiPc @1368
    _ZN14DataStructures5Table19GetCellValueByIndexEjjPc @1369
    _ZN14DataStructures5Table19GetCellValueByIndexEjjPcPi @1370
    _ZN14DataStructures5Table19GetCellValueByIndexEjjPi @1371
    _ZN14DataStructures5Table3Row10UpdateCellEjPKc @1372
    _ZN14DataStructures5Table3Row10UpdateCellEjd @1373
    _ZN14DataStructures5Table3Row10UpdateCellEjiPKc @1374
    _ZN14DataStructures5Table3RowC1Ev @1375
    _ZN14DataStructures5Table3RowD1Ev @1376
    _ZN14DataStructures5Table4Cell3GetEPc @1377
    _ZN14DataStructures5Table4Cell3GetEPcPi @1378
    _ZN14DataStructures5Table4Cell3GetEPd @1379
    _ZN14DataStructures5Table4Cell3GetEPi @1380
    _ZN14DataStructures5Table4Cell3SetEPKc @1381
    _ZN14DataStructures5Table4Cell3SetEPKci @1382
    _ZN14DataStructures5Table4Cell3SetEd @1383
    _ZN14DataStructures5Table4Cell3SetEi @1384
    _ZN14DataStructures5Table4Cell3SetEj @1385
    _ZN14DataStructures5Table4Cell5ClearEv @1386
    _ZN14DataStructures5Table4Cell6SetPtrEPv @1387
    _ZN14DataStructures5Table4Cell8ToStringENS0_10ColumnTypeE @1388
    _ZN14DataStructures5Table4Cell9SetByTypeEdPcPvNS0_10ColumnTypeE @1389
    _ZN14DataStructures5Table4CellC1ERKS1_ @1390
    _ZN14DataStructures5Table4CellC1EdPcPvNS0_10ColumnTypeE @1391
    _ZN14DataStructures5Table4CellC1Ev @1392
    _ZN14DataStructures5Table4CellC2ERKS1_ @1393
    _ZN14DataStructures5Table4CellC2EdPcPvNS0_10ColumnTypeE @1394
    _ZN14DataStructures5Table4CellC2Ev @1395
    _ZN14DataStructures5Table4CellD1Ev @1396
    _ZN14DataStructures5Table4CellD2Ev @1397
    _ZN14DataStructures5Table4CellaSERKS1_ @1398
    _ZN14DataStructures5Table5ClearEv @1399
    _ZN14DataStructures5Table6AddRowEj @1400
    _ZN14DataStructures5Table6AddRowEjRNS_4ListINS0_4CellEEE @1401
    _ZN14DataStructures5Table6AddRowEjRNS_4ListIPNS0_4CellEEEb @1402
    _ZN14DataStructures5Table8QueryRowERNS_4ListIjEES3_jPNS0_3RowEPNS0_11FilterQueryEPS0_ @1403
    _ZN14DataStructures5Table9AddColumnEPKcNS0_10ColumnTypeE @1404
    _ZN14DataStructures5Table9DeleteRowEPNS0_3RowE @1405
    _ZN14DataStructures5Table9RemoveRowEj @1406
    _ZN14DataStructures5Table9SortTableEPNS0_9SortQueryEjPPNS0_3RowE @1407
    _ZN14DataStructures5TableC1Ev @1408
    _ZN14DataStructures5TableC2Ev @1409
    _ZN14DataStructures5TableD1Ev @1410
    _ZN14DataStructures5TableD2Ev @1411
    _ZN14DataStructures5TableaSERKS0_ @1412
    _ZN14DataStructures8BytePool11SetPageSizeEi @1413
    _ZN14DataStructures8BytePool5ClearEPKcj @1414
    _ZN14DataStructures8BytePool7ReleaseEPhPKcj @1415
    _ZN14DataStructures8BytePool8AllocateEiPKcj @1416
    _ZN14DataStructures8BytePoolC1Ev @1417
    _ZN14DataStructures8BytePoolC2Ev @1418
    _ZN14DataStructures8BytePoolD1Ev @1419
    _ZN14DataStructures8BytePoolD2Ev @1420
    _ZN14DataStructures9BPlusTreeIjPNS_5Table3RowELi16EE10RotateLeftEPNS_4PageIjS3_Li16EEEiPNS4_12ReturnActionE @1421
    _ZN14DataStructures9BPlusTreeIjPNS_5Table3RowELi16EE11ForEachDataEPFvS3_iE @1422
    _ZN14DataStructures9BPlusTreeIjPNS_5Table3RowELi16EE11RotateRightEPNS_4PageIjS3_Li16EEEiPNS4_12ReturnActionE @1423
    _ZN14DataStructures9BPlusTreeIjPNS_5Table3RowELi16EE12FixUnderflowEiPNS_4PageIjS3_Li16EEEjPNS4_12ReturnActionE @1424
    _ZN14DataStructures9BPlusTreeIjPNS_5Table3RowELi16EE13CanRotateLeftEPNS_4PageIjS3_Li16EEEi @1425
    _ZN14DataStructures9BPlusTreeIjPNS_5Table3RowELi16EE13ShiftNodeLeftEPNS_4PageIjS3_Li16EEE @1426
    _ZN14DataStructures9BPlusTreeIjPNS_5Table3RowELi16EE14CanRotateRightEPNS_4PageIjS3_Li16EEEi @1427
    _ZN14DataStructures9BPlusTreeIjPNS_5Table3RowELi16EE14InsertIntoNodeEjRKS3_iPNS_4PageIjS3_Li16EEES9_PNS4_12ReturnActionE @1428
    _ZN14DataStructures9BPlusTreeIjPNS_5Table3RowELi16EE14ShiftNodeRightEPNS_4PageIjS3_Li16EEE @1429
    _ZN14DataStructures9BPlusTreeIjPNS_5Table3RowELi16EE16InsertBranchDownEjRKS3_PNS_4PageIjS3_Li16EEEPNS4_12ReturnActionEPb @1430
    _ZN14DataStructures9BPlusTreeIjPNS_5Table3RowELi16EE19FindDeleteRebalanceEjPNS_4PageIjS3_Li16EEEPbjPNS4_12ReturnActionERS3_ @1431
    _ZN14DataStructures9BPlusTreeIjPNS_5Table3RowELi16EE21DeleteFromPageAtIndexEiPNS_4PageIjS3_Li16EEE @1432
    _ZN14DataStructures9BPlusTreeIjPNS_5Table3RowELi16EE5ClearEv @1433
    _ZN14DataStructures9BPlusTreeIjPNS_5Table3RowELi16EE6DeleteEj @1434
    _ZN14DataStructures9BPlusTreeIjPNS_5Table3RowELi16EE6DeleteEjRS3_ @1435
    _ZN14DataStructures9BPlusTreeIjPNS_5Table3RowELi16EE6InsertEjRKS3_ @1436
    _ZN14DataStructures9BPlusTreeIjPNS_5Table3RowELi16EE9FreePagesEv @1437
    _ZN14DataStructures9BPlusTreeIjPNS_5Table3RowELi16EEC1Ev @1438
    _ZN14DataStructures9BPlusTreeIjPNS_5Table3RowELi16EED1Ev @1439
    _ZN14DataStructures9ByteQueue10WriteBytesEPKcjS2_j @1440
    _ZN14DataStructures9ByteQueue19DecrementReadOffsetEj @1441
    _ZN14DataStructures9ByteQueue19IncrementReadOffsetEj @1442
    _ZN14DataStructures9ByteQueue5ClearEPKcj @1443
    _ZN14DataStructures9ByteQueue5PrintEv @1444
    _ZN14DataStructures9ByteQueue9ReadBytesEPcjb @1445
    _ZN14DataStructures9ByteQueueC1Ev @1446
    _ZN14DataStructures9ByteQueueC2Ev @1447
    _ZN14DataStructures9ByteQueueD1Ev @1448
    _ZN14DataStructures9ByteQueueD2Ev @1449
    _ZN14DataStructures9HashIndex10SetInvalidEv @1450
    _ZN14DataStructures9RangeListIN6RakNet8uint24_tEE11DeserializeEPNS1_9BitStreamE @1451
    _ZN14DataStructures9RangeListIN6RakNet8uint24_tEE5ClearEv @1452
    _ZN14DataStructures9RangeListIN6RakNet8uint24_tEE6InsertES2_ @1453
    _ZN14DataStructures9RangeListIN6RakNet8uint24_tEE9SerializeEPNS1_9BitStreamEjb @1454
    _ZN14DataStructures9RangeListIN6RakNet8uint24_tEEC1Ev @1455
    _ZN14DataStructures9RangeListIN6RakNet8uint24_tEED1Ev @1456
    _ZN14DataStructures9RangeNodeIN6RakNet8uint24_tEEC1ES2_S2_ @1457
    _ZN14DataStructures9RangeNodeIN6RakNet8uint24_tEEC1Ev @1458
    _ZN14DataStructures9RangeNodeIN6RakNet8uint24_tEED1Ev @1459
    _ZN14DataStructures9RangeNodeIN6RakNet8uint24_tEEaSERKS3_ @1460
    _ZN14GridSectorizer10GetEntriesERN14DataStructures4ListIPvEEffff @1461
    _ZN14GridSectorizer4InitEffffff @1462
    _ZN14GridSectorizer5ClearEv @1463
    _ZN14GridSectorizer8AddEntryEPvffff @1464
    _ZN14GridSectorizerC1Ev @1465
    _ZN14GridSectorizerC2Ev @1466
    _ZN14GridSectorizerD1Ev @1467
    _ZN14GridSectorizerD2Ev @1468
    _ZN16RakStringCleanupD1Ev @1469
    _ZN17VariadicSQLParser13FreeArgumentsERKN14DataStructures4ListINS_12IndexAndTypeEEEPPcPi @1470
    _ZN17VariadicSQLParser16ExtractArgumentsEPcRKN14DataStructures4ListINS_12IndexAndTypeEEEPPS0_PPi @1471
    _ZN17VariadicSQLParser21GetTypeMappingAtIndexEi @1472
    _ZN17VariadicSQLParser21GetTypeMappingIndicesEPKcRN14DataStructures4ListINS_12IndexAndTypeEEE @1473
    _ZN19FileListNodeContextC1Ehjjj @1474
    _ZN19FileListNodeContextC1Ev @1475
    _ZN19FileListNodeContextD1Ev @1476
    _ZN19WSAStartupSingleton5DerefEv @1477
    _ZN19WSAStartupSingleton6AddRefEv @1478
    _ZN19WSAStartupSingleton8refCountE @1479 DATA
    _ZN19WSAStartupSingletonC1Ev @1480
    _ZN19WSAStartupSingletonC2Ev @1481
    _ZN19WSAStartupSingletonD1Ev @1482
    _ZN19WSAStartupSingletonD2Ev @1483
    _ZN20DatagramHeaderFormat11DeserializeEPN6RakNet9BitStreamE @1484
    _ZN20DatagramHeaderFormat23GetDataHeaderByteLengthEv @1485
    _ZN20DatagramHeaderFormat9SerializeEPN6RakNet9BitStreamE @1486
    _ZN20DatagramHeaderFormatC1Ev @1487
    _ZN5CSHA14HMACEPhiS0_iS0_ @1488
    _ZN5CSHA15FinalEv @1489
    _ZN5CSHA15ResetEv @1490
    _ZN5CSHA16UpdateEPKhm @1491
    _ZN5CSHA18HashFileEPKc @1492
    _ZN5CSHA19TransformEPmPKh @1493
    _ZN5CSHA1C1Ev @1494
    _ZN5CSHA1C2Ev @1495
    _ZN5CSHA1D1Ev @1496
    _ZN5CSHA1D2Ev @1497
    _ZN6RakNet10BPSTracker13ClearExpired1Ey @1498
    _ZN6RakNet10BPSTracker13TimeAndValue2C1Ev @1499
    _ZN6RakNet10BPSTracker13TimeAndValue2C1Eyy @1500
    _ZN6RakNet10BPSTracker13TimeAndValue2C2Ev @1501
    _ZN6RakNet10BPSTracker13TimeAndValue2C2Eyy @1502
    _ZN6RakNet10BPSTracker13TimeAndValue2D1Ev @1503
    _ZN6RakNet10BPSTracker13TimeAndValue2D2Ev @1504
    _ZN6RakNet10BPSTracker17GetBPS1ThreadsafeEy @1505
    _ZN6RakNet10BPSTracker5Push1Eyy @1506
    _ZN6RakNet10BPSTracker5ResetEPKcj @1507
    _ZN6RakNet10BPSTracker7GetBPS1Ey @1508
    _ZN6RakNet10BPSTrackerC1Ev @1509
    _ZN6RakNet10BPSTrackerC2Ev @1510
    _ZN6RakNet10BPSTrackerD1Ev @1511
    _ZN6RakNet10BPSTrackerD2Ev @1512
    _ZN6RakNet10CanConnectENS_22NATTypeDetectionResultES0_ @1513
    _ZN6RakNet10CloudQuery9SerializeEbPNS_9BitStreamE @1514
    _ZN6RakNet10CloudQueryC1Ev @1515
    _ZN6RakNet10CloudQueryD1Ev @1516
    _ZN6RakNet10CloudQueryaSERKS0_ @1517
    _ZN6RakNet10FLP_Printf11GetInstanceEv @1518
    _ZN6RakNet10FLP_Printf11OnDirectoryEPNS_8FileListEPcj @1519
    _ZN6RakNet10FLP_Printf13OnSendAbortedENS_13SystemAddressE @1520
    _ZN6RakNet10FLP_Printf15DestroyInstanceEPS0_ @1521
    _ZN6RakNet10FLP_Printf20OnFilePushesCompleteENS_13SystemAddressEt @1522
    _ZN6RakNet10FLP_Printf30OnAddFilesFromDirectoryStartedEPNS_8FileListEPc @1523
    _ZN6RakNet10FLP_PrintfC1Ev @1524
    _ZN6RakNet10FLP_PrintfD0Ev @1525
    _ZN6RakNet10FLP_PrintfD1Ev @1526
    _ZN6RakNet10RakNetGUID10FromStringEPKc @1527
    _ZN6RakNet10RakNetGUID4sizeEv @1528
    _ZN6RakNet10RakNetGUID8ToUint32ERKS0_ @1529
    _ZN6RakNet10RakNetGUIDC1Ev @1530
    _ZN6RakNet10RakNetGUIDC1Ey @1531
    _ZN6RakNet10RakNetGUIDC2Ev @1532
    _ZN6RakNet10RakNetGUIDaSERKS0_ @1533
    _ZN6RakNet10RakWString11DeserializeEPNS_9BitStreamE @1534
    _ZN6RakNet10RakWString11DeserializeEPwPNS_9BitStreamE @1535
    _ZN6RakNet10RakWString3SetEPw @1536
    _ZN6RakNet10RakWString5ClearEv @1537
    _ZN6RakNet10RakWString6PrintfEv @1538
    _ZN6RakNet10RakWString7FPrintfEP6_iobuf @1539
    _ZN6RakNet10RakWString9SerializeEPKwPNS_9BitStreamE @1540
    _ZN6RakNet10RakWString9ToIntegerERKS0_ @1541
    _ZN6RakNet10RakWStringC1EPKc @1542
    _ZN6RakNet10RakWStringC1EPKw @1543
    _ZN6RakNet10RakWStringC1ERKNS_9RakStringE @1544
    _ZN6RakNet10RakWStringC1ERKS0_ @1545
    _ZN6RakNet10RakWStringC1Ev @1546
    _ZN6RakNet10RakWStringC2EPKc @1547
    _ZN6RakNet10RakWStringC2EPKw @1548
    _ZN6RakNet10RakWStringC2ERKNS_9RakStringE @1549
    _ZN6RakNet10RakWStringC2ERKS0_ @1550
    _ZN6RakNet10RakWStringC2Ev @1551
    _ZN6RakNet10RakWStringD1Ev @1552
    _ZN6RakNet10RakWStringD2Ev @1553
    _ZN6RakNet10RakWStringaSEPKc @1554
    _ZN6RakNet10RakWStringaSEPKw @1555
    _ZN6RakNet10RakWStringaSEPc @1556
    _ZN6RakNet10RakWStringaSEPw @1557
    _ZN6RakNet10RakWStringaSERKNS_9RakStringE @1558
    _ZN6RakNet10RakWStringaSERKS0_ @1559
    _ZN6RakNet10RakWStringpLEPKw @1560
    _ZN6RakNet10RakWStringpLEPw @1561
    _ZN6RakNet10RakWStringpLERKS0_ @1562
    _ZN6RakNet10ReadyEvent10IsEventSetEi @1563
    _ZN6RakNet10ReadyEvent11DeleteEventEi @1564
    _ZN6RakNet10ReadyEvent11GetInstanceEv @1565
    _ZN6RakNet10ReadyEvent12IsInWaitListEiNS_10RakNetGUIDE @1566
    _ZN6RakNet10ReadyEvent12RemoteSystemC1Ev @1567
    _ZN6RakNet10ReadyEvent12RemoteSystemaSERKS1_ @1568
    _ZN6RakNet10ReadyEvent13AddToWaitListEiNS_10RakNetGUIDE @1569
    _ZN6RakNet10ReadyEvent14CreateNewEventEib @1570
    _ZN6RakNet10ReadyEvent14GetReadyStatusEiNS_10RakNetGUIDE @1571
    _ZN6RakNet10ReadyEvent14ReadyEventNodeC1Ev @1572
    _ZN6RakNet10ReadyEvent14ReadyEventNodeD1Ev @1573
    _ZN6RakNet10ReadyEvent14SetSendChannelEh @1574
    _ZN6RakNet10ReadyEvent15DestroyInstanceEPS0_ @1575
    _ZN6RakNet10ReadyEvent15ForceCompletionEi @1576
    _ZN6RakNet10ReadyEvent15SendReadyUpdateEjjb @1577
    _ZN6RakNet10ReadyEvent15SetEventByIndexEib @1578
    _ZN6RakNet10ReadyEvent17OnRakPeerShutdownEv @1579
    _ZN6RakNet10ReadyEvent17OnReadyEventQueryEPNS_6PacketE @1580
    _ZN6RakNet10ReadyEvent17UpdateReadyStatusEj @1581
    _ZN6RakNet10ReadyEvent18OnClosedConnectionERKNS_13SystemAddressENS_10RakNetGUIDENS_24PI2_LostConnectionReasonE @1582
    _ZN6RakNet10ReadyEvent18ReadyEventNodeCompERKiRKPNS0_14ReadyEventNodeE @1583
    _ZN6RakNet10ReadyEvent18RemoveFromAllListsENS_10RakNetGUIDE @1584
    _ZN6RakNet10ReadyEvent18RemoveFromWaitListEiNS_10RakNetGUIDE @1585
    _ZN6RakNet10ReadyEvent19SendReadyStateQueryEjNS_10RakNetGUIDE @1586
    _ZN6RakNet10ReadyEvent20BroadcastReadyUpdateEjb @1587
    _ZN6RakNet10ReadyEvent20PushCompletionPacketEj @1588
    _ZN6RakNet10ReadyEvent21AddToWaitListInternalEjNS_10RakNetGUIDE @1589
    _ZN6RakNet10ReadyEvent22RemoteSystemCompByGuidERKNS_10RakNetGUIDERKNS0_12RemoteSystemE @1590
    _ZN6RakNet10ReadyEvent23OnReadyEventForceAllSetEPNS_6PacketE @1591
    _ZN6RakNet10ReadyEvent24OnReadyEventPacketUpdateEPNS_6PacketE @1592
    _ZN6RakNet10ReadyEvent5ClearEv @1593
    _ZN6RakNet10ReadyEvent8HasEventEi @1594
    _ZN6RakNet10ReadyEvent8SetEventEib @1595
    _ZN6RakNet10ReadyEvent9OnReceiveEPNS_6PacketE @1596
    _ZN6RakNet10ReadyEventC1Ev @1597
    _ZN6RakNet10ReadyEventC2Ev @1598
    _ZN6RakNet10ReadyEventD0Ev @1599
    _ZN6RakNet10ReadyEventD1Ev @1600
    _ZN6RakNet10ReadyEventD2Ev @1601
    _ZN6RakNet10_RakMallocEj @1602
    _ZN6RakNet11CloudClient11GetInstanceEv @1603
    _ZN6RakNet11CloudClient11UnsubscribeERN14DataStructures4ListINS_8CloudKeyEEENS_10RakNetGUIDE @1604
    _ZN6RakNet11CloudClient11UnsubscribeERN14DataStructures4ListINS_8CloudKeyEEERNS2_INS_10RakNetGUIDEEES6_ @1605
    _ZN6RakNet11CloudClient11UnsubscribeERN14DataStructures4ListINS_8CloudKeyEEERNS2_IPNS_13CloudQueryRowEEENS_10RakNetGUIDE @1606
    _ZN6RakNet11CloudClient12OnGetReponseEPNS_16CloudQueryResultEPNS_6PacketEPNS_14CloudAllocatorE @1607
    _ZN6RakNet11CloudClient12OnGetReponseEPNS_6PacketEPNS_19CloudClientCallbackEPNS_14CloudAllocatorE @1608
    _ZN6RakNet11CloudClient15DestroyInstanceEPS0_ @1609
    _ZN6RakNet11CloudClient19SetDefaultCallbacksEPNS_14CloudAllocatorEPNS_19CloudClientCallbackE @1610
    _ZN6RakNet11CloudClient26OnSubscriptionNotificationEPNS_6PacketEPNS_19CloudClientCallbackEPNS_14CloudAllocatorE @1611
    _ZN6RakNet11CloudClient26OnSubscriptionNotificationEPbPNS_13CloudQueryRowEPNS_6PacketEPNS_14CloudAllocatorE @1612
    _ZN6RakNet11CloudClient30DeallocateWithDefaultAllocatorEPNS_13CloudQueryRowE @1613
    _ZN6RakNet11CloudClient30DeallocateWithDefaultAllocatorEPNS_16CloudQueryResultE @1614
    _ZN6RakNet11CloudClient3GetEPNS_10CloudQueryENS_10RakNetGUIDE @1615
    _ZN6RakNet11CloudClient3GetEPNS_10CloudQueryERN14DataStructures4ListINS_10RakNetGUIDEEES5_ @1616
    _ZN6RakNet11CloudClient3GetEPNS_10CloudQueryERN14DataStructures4ListIPNS_13CloudQueryRowEEENS_10RakNetGUIDE @1617
    _ZN6RakNet11CloudClient4PostEPNS_8CloudKeyEPKhjNS_10RakNetGUIDE @1618
    _ZN6RakNet11CloudClient7ReleaseERN14DataStructures4ListINS_8CloudKeyEEENS_10RakNetGUIDE @1619
    _ZN6RakNet11CloudClient9OnReceiveEPNS_6PacketE @1620
    _ZN6RakNet11CloudClientC1Ev @1621
    _ZN6RakNet11CloudClientC2Ev @1622
    _ZN6RakNet11CloudClientD0Ev @1623
    _ZN6RakNet11CloudClientD1Ev @1624
    _ZN6RakNet11CloudClientD2Ev @1625
    _ZN6RakNet11CloudServer10GetRequest5ClearEPNS_14CloudAllocatorE @1626
    _ZN6RakNet11CloudServer10GetRequestC1Ev @1627
    _ZN6RakNet11CloudServer10GetRequestD1Ev @1628
    _ZN6RakNet11CloudServer12OnGetRequestEPNS_6PacketE @1629
    _ZN6RakNet11CloudServer12RemoteServerC1Ev @1630
    _ZN6RakNet11CloudServer12RemoteServerD1Ev @1631
    _ZN6RakNet11CloudServer12RemoveServerENS_10RakNetGUIDE @1632
    _ZN6RakNet11CloudServer13CloudDataList16RemoveSubscriberENS_10RakNetGUIDE @1633
    _ZN6RakNet11CloudServer13CloudDataListC1Ev @1634
    _ZN6RakNet11CloudServer13CloudDataListD1Ev @1635
    _ZN6RakNet11CloudServer13OnPostRequestEPNS_6PacketE @1636
    _ZN6RakNet11CloudServer14AddQueryFilterEPNS_22CloudServerQueryFilterE @1637
    _ZN6RakNet11CloudServer14GetRequestCompERKjRKPNS0_10GetRequestE @1638
    _ZN6RakNet11CloudServer14KeyDataPtrCompERKNS_10RakNetGUIDERKPNS0_9CloudDataE @1639
    _ZN6RakNet11CloudServer15KeyDataListCompERKNS_8CloudKeyERKPNS0_13CloudDataListE @1640
    _ZN6RakNet11CloudServer15KeySubscriberIDC1Ev @1641
    _ZN6RakNet11CloudServer15KeySubscriberIDD1Ev @1642
    _ZN6RakNet11CloudServer16GetRemoteServersERN14DataStructures4ListINS_10RakNetGUIDEEE @1643
    _ZN6RakNet11CloudServer16OnReleaseRequestEPNS_6PacketE @1644
    _ZN6RakNet11CloudServer16RemoteServerCompERKNS_10RakNetGUIDERKPNS0_12RemoteServerE @1645
    _ZN6RakNet11CloudServer17OnRakPeerShutdownEv @1646
    _ZN6RakNet11CloudServer17RemoteCloudClientC1Ev @1647
    _ZN6RakNet11CloudServer17RemoteCloudClientD1Ev @1648
    _ZN6RakNet11CloudServer17RemoveQueryFilterEPNS_22CloudServerQueryFilterE @1649
    _ZN6RakNet11CloudServer18OnClosedConnectionERKNS_13SystemAddressENS_10RakNetGUIDENS_24PI2_LostConnectionReasonE @1650
    _ZN6RakNet11CloudServer18UnsubscribeFromKeyEPNS0_17RemoteCloudClientENS_10RakNetGUIDEjRNS_8CloudKeyERN14DataStructures4ListIS3_EE @1651
    _ZN6RakNet11CloudServer19KeySubscriberIDCompERKNS_8CloudKeyERKPNS0_15KeySubscriberIDE @1652
    _ZN6RakNet11CloudServer19OnServerDataChangedEPNS_6PacketE @1653
    _ZN6RakNet11CloudServer20OnUnsubscribeRequestEPNS_6PacketE @1654
    _ZN6RakNet11CloudServer21RemoveAllQueryFiltersEv @1655
    _ZN6RakNet11CloudServer22SetMaxBytesPerDownloadEy @1656
    _ZN6RakNet11CloudServer23CloudQueryWithAddresses9SerializeEbPNS_9BitStreamE @1657
    _ZN6RakNet11CloudServer23CloudQueryWithAddressesC1Ev @1658
    _ZN6RakNet11CloudServer23CloudQueryWithAddressesD1Ev @1659
    _ZN6RakNet11CloudServer24RemoveSpecificSubscriberENS_10RakNetGUIDEPNS0_13CloudDataListES1_ @1660
    _ZN6RakNet11CloudServer24SendUploadedKeyToServersERNS_8CloudKeyE @1661
    _ZN6RakNet11CloudServer26ForceExternalSystemAddressENS_13SystemAddressE @1662
    _ZN6RakNet11CloudServer26GetOrAllocateCloudDataListENS_8CloudKeyEPbRj @1663
    _ZN6RakNet11CloudServer26GetServersWithUploadedKeysERN14DataStructures4ListINS_8CloudKeyEEERNS2_IPNS0_12RemoteServerEEE @1664
    _ZN6RakNet11CloudServer26OnSendUploadedKeyToServersEPNS_6PacketE @1665
    _ZN6RakNet11CloudServer26OnServerToServerGetRequestEPNS_6PacketE @1666
    _ZN6RakNet11CloudServer26SendSubscribedKeyToServersERNS_8CloudKeyE @1667
    _ZN6RakNet11CloudServer26SetMaxUploadBytesPerClientEy @1668
    _ZN6RakNet11CloudServer27OnServerToServerGetResponseEPNS_6PacketE @1669
    _ZN6RakNet11CloudServer28OnSendSubscribedKeyToServersEPNS_6PacketE @1670
    _ZN6RakNet11CloudServer28ProcessAndTransmitGetRequestEPNS0_10GetRequestE @1671
    _ZN6RakNet11CloudServer28RemoveUploadedKeyFromServersERNS_8CloudKeyE @1672
    _ZN6RakNet11CloudServer29BufferedGetResponseFromServer5ClearEPNS_14CloudAllocatorE @1673
    _ZN6RakNet11CloudServer29BufferedGetResponseFromServerC1Ev @1674
    _ZN6RakNet11CloudServer29BufferedGetResponseFromServerD1Ev @1675
    _ZN6RakNet11CloudServer30OnRemoveUploadedKeyFromServersEPNS_6PacketE @1676
    _ZN6RakNet11CloudServer30ProcessCloudQueryWithAddressesERNS0_23CloudQueryWithAddressesERN14DataStructures4ListIPNS0_9CloudDataEEERNS4_INS_8CloudKeyEEE @1677
    _ZN6RakNet11CloudServer30RemoveSubscribedKeyFromServersERNS_8CloudKeyE @1678
    _ZN6RakNet11CloudServer32OnRemoveSubscribedKeyFromServersEPNS_6PacketE @1679
    _ZN6RakNet11CloudServer32WriteCloudQueryRowFromResultListERN14DataStructures4ListIPNS0_9CloudDataEEERNS2_INS_8CloudKeyEEEPNS_9BitStreamE @1680
    _ZN6RakNet11CloudServer32WriteCloudQueryRowFromResultListEjRN14DataStructures4ListIPNS0_9CloudDataEEERNS2_INS_8CloudKeyEEEPNS_9BitStreamE @1681
    _ZN6RakNet11CloudServer33BufferedGetResponseFromServerCompERKNS_10RakNetGUIDERKPNS0_29BufferedGetResponseFromServerE @1682
    _ZN6RakNet11CloudServer35NotifyClientSubscribersOfDataChangeEPNS0_9CloudDataERNS_8CloudKeyERN14DataStructures11OrderedListINS_10RakNetGUIDES7_XadL_ZNS5_28defaultOrderedListComparisonIS7_S7_EEiRKT_RKT0_EEEEb @1683
    _ZN6RakNet11CloudServer35NotifyClientSubscribersOfDataChangeEPNS_13CloudQueryRowERN14DataStructures11OrderedListINS_10RakNetGUIDES5_XadL_ZNS3_28defaultOrderedListComparisonIS5_S5_EEiRKT_RKT0_EEEEb @1684
    _ZN6RakNet11CloudServer35NotifyServerSubscribersOfDataChangeEPNS0_9CloudDataERNS_8CloudKeyEb @1685
    _ZN6RakNet11CloudServer37SendUploadedAndSubscribedKeysToServerENS_10RakNetGUIDE @1686
    _ZN6RakNet11CloudServer39OnSendUploadedAndSubscribedKeysToServerEPNS_6PacketE @1687
    _ZN6RakNet11CloudServer5ClearEv @1688
    _ZN6RakNet11CloudServer6UpdateEv @1689
    _ZN6RakNet11CloudServer9AddServerENS_10RakNetGUIDE @1690
    _ZN6RakNet11CloudServer9CloudData5ClearEv @1691
    _ZN6RakNet11CloudServer9CloudDataC1Ev @1692
    _ZN6RakNet11CloudServer9CloudDataD1Ev @1693
    _ZN6RakNet11CloudServer9OnReceiveEPNS_6PacketE @1694
    _ZN6RakNet11CloudServerC1Ev @1695
    _ZN6RakNet11CloudServerC2Ev @1696
    _ZN6RakNet11CloudServerD0Ev @1697
    _ZN6RakNet11CloudServerD1Ev @1698
    _ZN6RakNet11CloudServerD2Ev @1699
    _ZN6RakNet11EmailSender11GetInstanceEv @1700
    _ZN6RakNet11EmailSender11GetResponseEPNS_12TCPInterfaceERKNS_13SystemAddressEb @1701
    _ZN6RakNet11EmailSender15DestroyInstanceEPS0_ @1702
    _ZN6RakNet11EmailSender4SendEPKctS2_S2_S2_S2_S2_S2_PNS_8FileListEbS2_ @1703
    _ZN6RakNet11EmailSenderC1Ev @1704
    _ZN6RakNet11EmailSenderD1Ev @1705
    _ZN6RakNet11GreaterThanEyy @1706
    _ZN6RakNet11RelayPlugin10LeaveGroupEPPNS0_17StrAndGuidAndRoomE @1707
    _ZN6RakNet11RelayPlugin10LeaveGroupERKNS_10RakNetGUIDE @1708
    _ZN6RakNet11RelayPlugin10StrAndGuidC1Ev @1709
    _ZN6RakNet11RelayPlugin10StrAndGuidD1Ev @1710
    _ZN6RakNet11RelayPlugin10StrAndGuidaSERKS1_ @1711
    _ZN6RakNet11RelayPlugin11GetInstanceEv @1712
    _ZN6RakNet11RelayPlugin12GetGroupListERKNS_10RakNetGUIDE @1713
    _ZN6RakNet11RelayPlugin15DestroyInstanceEPS0_ @1714
    _ZN6RakNet11RelayPlugin16JoinGroupRequestERKNS_10RakNetGUIDENS_9RakStringE @1715
    _ZN6RakNet11RelayPlugin16SendGroupMessageERKNS_10RakNetGUIDEPNS_9BitStreamE14PacketPriority17PacketReliabilityc @1716
    _ZN6RakNet11RelayPlugin17NotifyUsersInRoomEPNS0_8RP_GroupEiRKNS_9RakStringE @1717
    _ZN6RakNet11RelayPlugin17SendChatRoomsListENS_10RakNetGUIDE @1718
    _ZN6RakNet11RelayPlugin17SendMessageToRoomEPPNS0_17StrAndGuidAndRoomEPNS_9BitStreamE @1719
    _ZN6RakNet11RelayPlugin17SendToParticipantERKNS_10RakNetGUIDERKNS_9RakStringEPNS_9BitStreamE14PacketPriority17PacketReliabilityc @1720
    _ZN6RakNet11RelayPlugin17StrAndGuidAndRoomC1Ev @1721
    _ZN6RakNet11RelayPlugin17StrAndGuidAndRoomD1Ev @1722
    _ZN6RakNet11RelayPlugin18OnClosedConnectionERKNS_13SystemAddressENS_10RakNetGUIDENS_24PI2_LostConnectionReasonE @1723
    _ZN6RakNet11RelayPlugin22AddParticipantOnServerERKNS_9RakStringERKNS_10RakNetGUIDE @1724
    _ZN6RakNet11RelayPlugin24OnGroupMessageFromClientEPNS_6PacketE @1725
    _ZN6RakNet11RelayPlugin25RemoveParticipantOnServerERKNS_10RakNetGUIDE @1726
    _ZN6RakNet11RelayPlugin28OnJoinGroupRequestFromClientEPNS_6PacketE @1727
    _ZN6RakNet11RelayPlugin29OnLeaveGroupRequestFromClientEPNS_6PacketE @1728
    _ZN6RakNet11RelayPlugin31AddParticipantRequestFromClientERKNS_9RakStringERKNS_10RakNetGUIDE @1729
    _ZN6RakNet11RelayPlugin31SetAcceptAddParticipantRequestsEb @1730
    _ZN6RakNet11RelayPlugin34RemoveParticipantRequestFromClientERKNS_10RakNetGUIDE @1731
    _ZN6RakNet11RelayPlugin8RP_GroupC1Ev @1732
    _ZN6RakNet11RelayPlugin8RP_GroupD1Ev @1733
    _ZN6RakNet11RelayPlugin9JoinGroupENS_10RakNetGUIDENS_9RakStringE @1734
    _ZN6RakNet11RelayPlugin9JoinGroupEPNS0_8RP_GroupEPPNS0_17StrAndGuidAndRoomE @1735
    _ZN6RakNet11RelayPlugin9OnReceiveEPNS_6PacketE @1736
    _ZN6RakNet11RelayPluginC1Ev @1737
    _ZN6RakNet11RelayPluginC2Ev @1738
    _ZN6RakNet11RelayPluginD0Ev @1739
    _ZN6RakNet11RelayPluginD1Ev @1740
    _ZN6RakNet11RelayPluginD2Ev @1741
    _ZN6RakNet11SimpleMutex4InitEv @1742
    _ZN6RakNet11SimpleMutex4LockEv @1743
    _ZN6RakNet11SimpleMutex6UnlockEv @1744
    _ZN6RakNet11SimpleMutexC1Ev @1745
    _ZN6RakNet11SimpleMutexC2Ev @1746
    _ZN6RakNet11SimpleMutexD1Ev @1747
    _ZN6RakNet11SimpleMutexD2Ev @1748
    _ZN6RakNet11SocketLayer12GetLocalPortEj @1749
    _ZN6RakNet11SocketLayer16GetSystemAddressEjPNS_13SystemAddressE @1750
    _ZN6RakNet11SocketLayer16SetSocketOptionsEjbb @1751
    _ZN6RakNet11SocketLayer18GetFirstBindableIPEPci @1752
    _ZN6RakNet11SocketLayer20GetSystemAddress_OldEjPNS_13SystemAddressE @1753
    _ZN6RakNet11SocketLayer23GetSubNetForSocketAndIpEjNS_9RakStringE @1754
    _ZN6RakNet11SocketLayer7GetMyIPEPNS_13SystemAddressE @1755
    _ZN6RakNet11StringTable12AddReferenceEv @1756
    _ZN6RakNet11StringTable12DecodeStringEPciPNS_9BitStreamE @1757
    _ZN6RakNet11StringTable12EncodeStringEPKciPNS_9BitStreamE @1758
    _ZN6RakNet11StringTable14referenceCountE @1759 DATA
    _ZN6RakNet11StringTable15RemoveReferenceEv @1760
    _ZN6RakNet11StringTable17LogStringNotFoundEPKc @1761
    _ZN6RakNet11StringTable8InstanceEv @1762
    _ZN6RakNet11StringTable8instanceE @1763 DATA
    _ZN6RakNet11StringTable9AddStringEPKcb @1764
    _ZN6RakNet11StringTableC1Ev @1765
    _ZN6RakNet11StringTableC2Ev @1766
    _ZN6RakNet11StringTableD1Ev @1767
    _ZN6RakNet11StringTableD2Ev @1768
    _ZN6RakNet11TeamManager11GetInstanceEv @1769
    _ZN6RakNet11TeamManager11OnLeaveTeamEPNS_6PacketEPNS_8TM_WorldE @1770
    _ZN6RakNet11TeamManager11RemoveWorldEh @1771
    _ZN6RakNet11TeamManager11SetTopologyENS_10TMTopologyE @1772
    _ZN6RakNet11TeamManager13OnJoinAnyTeamEPNS_6PacketEPNS_8TM_WorldE @1773
    _ZN6RakNet11TeamManager13PushBitStreamEPNS_9BitStreamE @1774
    _ZN6RakNet11TeamManager14EncodeTeamFullEPNS_9BitStreamEPNS_13TM_TeamMemberEPNS_7TM_TeamE @1775
    _ZN6RakNet11TeamManager15DestroyInstanceEPS0_ @1776
    _ZN6RakNet11TeamManager15OnNewConnectionERKNS_13SystemAddressENS_10RakNetGUIDEb @1777
    _ZN6RakNet11TeamManager16EncodeTeamLockedEPNS_9BitStreamEPNS_13TM_TeamMemberEPNS_7TM_TeamE @1778
    _ZN6RakNet11TeamManager16OnSetMemberLimitEPNS_6PacketEPNS_8TM_WorldE @1779
    _ZN6RakNet11TeamManager16PushTeamAssignedEPNS_13TM_TeamMemberE @1780
    _ZN6RakNet11TeamManager17DecomposeTeamFullEPNS_6PacketEPPNS_8TM_WorldEPPNS_13TM_TeamMemberEPPNS_7TM_TeamERtSC_RbRh @1781
    _ZN6RakNet11TeamManager17OnSetBalanceTeamsEPNS_6PacketEPNS_8TM_WorldE @1782
    _ZN6RakNet11TeamManager18DecodeTeamAssignedEPNS_6PacketEPPNS_8TM_WorldEPPNS_13TM_TeamMemberE @1783
    _ZN6RakNet11TeamManager18DecodeTeamAssignedEPNS_9BitStreamEPPNS_8TM_WorldEPPNS_13TM_TeamMemberERhRNS_12JoinTeamTypeERN14DataStructures4ListIPNS_7TM_TeamEEESH_SH_ @1784
    _ZN6RakNet11TeamManager18EncodeTeamAssignedEPNS_9BitStreamEPNS_13TM_TeamMemberE @1785
    _ZN6RakNet11TeamManager18OnClosedConnectionERKNS_13SystemAddressENS_10RakNetGUIDENS_24PI2_LostConnectionReasonE @1786
    _ZN6RakNet11TeamManager19DecodeTeamCancelledEPNS_6PacketEPPNS_8TM_WorldEPPNS_13TM_TeamMemberEPPNS_7TM_TeamE @1787
    _ZN6RakNet11TeamManager19DecomposeTeamLockedEPNS_6PacketEPPNS_8TM_WorldEPPNS_13TM_TeamMemberEPPNS_7TM_TeamERtSC_RbRh @1788
    _ZN6RakNet11TeamManager19OnJoinRequestedTeamEPNS_6PacketEPNS_8TM_WorldE @1789
    _ZN6RakNet11TeamManager19ProcessTeamAssignedEPNS_9BitStreamE @1790
    _ZN6RakNet11TeamManager20OnSetJoinPermissionsEPNS_6PacketEPNS_8TM_WorldE @1791
    _ZN6RakNet11TeamManager21OnAddToRequestedTeamsEPNS_6PacketEPNS_8TM_WorldE @1792
    _ZN6RakNet11TeamManager21OnUpdateListsToNoTeamEPNS_6PacketEPNS_8TM_WorldE @1793
    _ZN6RakNet11TeamManager22EncodeTeamFullOrLockedEPNS_9BitStreamEPNS_13TM_TeamMemberEPNS_7TM_TeamE @1794
    _ZN6RakNet11TeamManager24OnSetBalanceTeamsInitialEPNS_6PacketEPNS_8TM_WorldE @1795
    _ZN6RakNet11TeamManager24SetAutoManageConnectionsEb @1796
    _ZN6RakNet11TeamManager25DecomposeTeamFullOrLockedEPNS_9BitStreamEPPNS_8TM_WorldEPPNS_13TM_TeamMemberEPPNS_7TM_TeamERtSC_RbRh @1797
    _ZN6RakNet11TeamManager26OnRemoveFromRequestedTeamsEPNS_6PacketEPNS_8TM_WorldE @1798
    _ZN6RakNet11TeamManager27OnUpdateTeamsRequestedToAnyEPNS_6PacketEPNS_8TM_WorldE @1799
    _ZN6RakNet11TeamManager34RemoveFromTeamsRequestedAndAddTeamEPNS_13TM_TeamMemberEPNS_7TM_TeamEbS4_ @1800
    _ZN6RakNet11TeamManager36OnRemoveFromTeamsRequestedAndAddTeamEPNS_6PacketEPNS_8TM_WorldE @1801
    _ZN6RakNet11TeamManager38OnUpdateTeamsRequestedToNoneAndAddTeamEPNS_6PacketEPNS_8TM_WorldE @1802
    _ZN6RakNet11TeamManager4SendEPKNS_9BitStreamENS_13AddressOrGUIDEb @1803
    _ZN6RakNet11TeamManager5ClearEv @1804
    _ZN6RakNet11TeamManager6UpdateEv @1805
    _ZN6RakNet11TeamManager8AddWorldEh @1806
    _ZN6RakNet11TeamManager9OnReceiveEPNS_6PacketE @1807
    _ZN6RakNet11TeamManagerC1Ev @1808
    _ZN6RakNet11TeamManagerC2Ev @1809
    _ZN6RakNet11TeamManagerD0Ev @1810
    _ZN6RakNet11TeamManagerD1Ev @1811
    _ZN6RakNet11TeamManagerD2Ev @1812
    _ZN6RakNet11_RakFree_ExEPvPKcj @1813
    _ZN6RakNet11_RakReallocEPvj @1814
    _ZN6RakNet12CloudKeyCompERKNS_8CloudKeyES2_ @1815
    _ZN6RakNet12FileListNodeC1Ev @1816
    _ZN6RakNet12FileListNodeD1Ev @1817
    _ZN6RakNet12FileListNodeaSERKS0_ @1818
    _ZN6RakNet12OP_NEW_ARRAYI10StrAndBoolEEPT_iPKcj @1819
    _ZN6RakNet12OP_NEW_ARRAYIN14DataStructures3MapINS_13SystemAddressEPNS1_9ByteQueueEXadL_ZNS1_23defaultMapKeyComparisonIS3_EEiRKT_S9_EEE7MapNodeEEEPS7_iPKcj @1820
    _ZN6RakNet12OP_NEW_ARRAYIN14DataStructures3MapIiPNS_19HuffmanEncodingTreeEXadL_ZNS1_23defaultMapKeyComparisonIiEEiRKT_S8_EEE7MapNodeEEEPS6_iPKcj @1821
    _ZN6RakNet12OP_NEW_ARRAYIN14DataStructures3MapIjNS_15FLR_MemoryBlockEXadL_ZNS1_23defaultMapKeyComparisonIjEEiRKT_S7_EEE7MapNodeEEEPS5_iPKcj @1822
    _ZN6RakNet12OP_NEW_ARRAYIN14DataStructures3MapItPNS_16FileListReceiverEXadL_ZNS1_23defaultMapKeyComparisonItEEiRKT_S8_EEE7MapNodeEEEPS6_iPKcj @1823
    _ZN6RakNet12OP_NEW_ARRAYIN14DataStructures4HeapIyPNS_14InternalPacketELb0EE8HeapNodeEEEPT_iPKcj @1824
    _ZN6RakNet12OP_NEW_ARRAYIN14DataStructures4ListIPvEEEEPT_iPKcj @1825
    _ZN6RakNet12OP_NEW_ARRAYIN14DataStructures5Table16ColumnDescriptorEEEPT_iPKcj @1826
    _ZN6RakNet12OP_NEW_ARRAYIN14DataStructures9RangeNodeINS_8uint24_tEEEEEPT_iPKcj @1827
    _ZN6RakNet12OP_NEW_ARRAYIN17VariadicSQLParser12IndexAndTypeEEEPT_iPKcj @1828
    _ZN6RakNet12OP_NEW_ARRAYINS_10BPSTracker13TimeAndValue2EEEPT_iPKcj @1829
    _ZN6RakNet12OP_NEW_ARRAYINS_10RakNetGUIDEEEPT_iPKcj @1830
    _ZN6RakNet12OP_NEW_ARRAYINS_10ReadyEvent12RemoteSystemEEEPT_iPKcj @1831
    _ZN6RakNet12OP_NEW_ARRAYINS_11RelayPlugin10StrAndGuidEEEPT_iPKcj @1832
    _ZN6RakNet12OP_NEW_ARRAYINS_12FileListNodeEEEPT_iPKcj @1833
    _ZN6RakNet12OP_NEW_ARRAYINS_12RemoteClientEEEPT_iPKcj @1834
    _ZN6RakNet12OP_NEW_ARRAYINS_12TeamBalancer10TeamMemberEEEPT_iPKcj @1835
    _ZN6RakNet12OP_NEW_ARRAYINS_12TeamBalancer13MyTeamMembersEEEPT_iPKcj @1836
    _ZN6RakNet12OP_NEW_ARRAYINS_12UDPForwarder27StartForwardingOutputStructEEEPT_iPKcj @1837
    _ZN6RakNet12OP_NEW_ARRAYINS_13AddressOrGUIDEEEPT_iPKcj @1838
    _ZN6RakNet12OP_NEW_ARRAYINS_13SystemAddressEEEPT_iPKcj @1839
    _ZN6RakNet12OP_NEW_ARRAYINS_13TM_TeamMember13RequestedTeamEEEPT_iPKcj @1840
    _ZN6RakNet12OP_NEW_ARRAYINS_14FilteredSystemEEEPT_iPKcj @1841
    _ZN6RakNet12OP_NEW_ARRAYINS_14HTTPConnection11BadResponseEEEPT_iPKcj @1842
    _ZN6RakNet12OP_NEW_ARRAYINS_14HTTPConnection15OutgoingCommandEEEPT_iPKcj @1843
    _ZN6RakNet12OP_NEW_ARRAYINS_14UDPProxyClient14ServerWithPingEEEPT_iPKcj @1844
    _ZN6RakNet12OP_NEW_ARRAYINS_16ConnectionGraph220SystemAddressAndGuidEEEPT_iPKcj @1845
    _ZN6RakNet12OP_NEW_ARRAYINS_16FileListTransfer10ThreadDataEEEPT_iPKcj @1846
    _ZN6RakNet12OP_NEW_ARRAYINS_16LogCommandParser23SystemAddressAndChannelEEEPT_iPKcj @1847
    _ZN6RakNet12OP_NEW_ARRAYINS_16RakNetStatisticsEEEPT_iPKcj @1848
    _ZN6RakNet12OP_NEW_ARRAYINS_16ReliabilityLayer19DatagramHistoryNodeEEEPT_iPKcj @1849
    _ZN6RakNet12OP_NEW_ARRAYINS_16ReliabilityLayer28UnreliableWithAckReceiptNodeEEEPT_iPKcj @1850
    _ZN6RakNet12OP_NEW_ARRAYINS_17RegisteredCommandEEEPT_iPKcj @1851
    _ZN6RakNet12OP_NEW_ARRAYINS_17StatisticsHistory12TimeAndValueEEEPT_iPKcj @1852
    _ZN6RakNet12OP_NEW_ARRAYINS_19FullyConnectedMesh228VerifiedJoinInProgressMemberEEEPT_iPKcj @1853
    _ZN6RakNet12OP_NEW_ARRAYINS_19UDPProxyCoordinator14ServerWithPingEEEPT_iPKcj @1854
    _ZN6RakNet12OP_NEW_ARRAYINS_20TwoWayAuthentication16PendingChallengeEEEPT_iPKcj @1855
    _ZN6RakNet12OP_NEW_ARRAYINS_21NatPunchthroughClient11AddrAndGuidEEEPT_iPKcj @1856
    _ZN6RakNet12OP_NEW_ARRAYINS_21NatPunchthroughClient9DSTAndFacEEEPT_iPKcj @1857
    _ZN6RakNet12OP_NEW_ARRAYINS_22NatTypeDetectionServer19NATDetectionAttemptEEEPT_iPKcj @1858
    _ZN6RakNet12OP_NEW_ARRAYINS_4RPC415LocalSlotObjectEEEPT_iPKcj @1859
    _ZN6RakNet12OP_NEW_ARRAYINS_7RakPeer18RemoteSystemStructEEEPT_iPKcj @1860
    _ZN6RakNet12OP_NEW_ARRAYINS_7Router216MiniPunchRequestEEEPT_iPKcj @1861
    _ZN6RakNet12OP_NEW_ARRAYINS_7Router219ForwardedConnectionEEEPT_iPKcj @1862
    _ZN6RakNet12OP_NEW_ARRAYINS_7Router223ConnectionRequestSystemEEEPT_iPKcj @1863
    _ZN6RakNet12OP_NEW_ARRAYINS_8CloudKeyEEEPT_iPKcj @1864
    _ZN6RakNet12OP_NEW_ARRAYINS_8TM_World17JoinRequestHelperEEEPT_iPKcj @1865
    _ZN6RakNet12OP_NEW_ARRAYINS_9Rackspace18RackspaceOperationEEEPT_iPKcj @1866
    _ZN6RakNet12OP_NEW_ARRAYINS_9RakStringEEEPT_iPKcj @1867
    _ZN6RakNet12OP_NEW_ARRAYIP23HuffmanEncodingTreeNodeEEPT_iPKcj @1868
    _ZN6RakNet12OP_NEW_ARRAYIPFiNS_16FileListTransfer10ThreadDataEPbPvEEEPT_iPKcj @1869
    _ZN6RakNet12OP_NEW_ARRAYIPN14DataStructures4HashINS_10RakNetGUIDEPNS_11CloudServer17RemoteCloudClientELj2048EXadL_ZNS3_8ToUint32ERKS3_EEE4NodeEEEPT_iPKcj @1870
    _ZN6RakNet12OP_NEW_ARRAYIPN14DataStructures4HashINS_10RakNetGUIDEPNS_11RelayPlugin17StrAndGuidAndRoomELj8096EXadL_ZNS3_8ToUint32ERKS3_EEE4NodeEEEPT_iPKcj @1871
    _ZN6RakNet12OP_NEW_ARRAYIPN14DataStructures4HashINS_13AddressOrGUIDENS_14FilteredSystemELj2048EXadL_ZNS3_9ToIntegerERKS3_EEE4NodeEEEPT_iPKcj @1872
    _ZN6RakNet12OP_NEW_ARRAYIPN14DataStructures4HashINS_9RakStringEPFvPNS_9BitStreamEPNS_6PacketEELj64EXadL_ZNS3_9ToIntegerERKS3_EEE4NodeEEEPT_iPKcj @1873
    _ZN6RakNet12OP_NEW_ARRAYIPN14DataStructures4HashINS_9RakStringEPFvPNS_9BitStreamES5_PNS_6PacketEELj64EXadL_ZNS3_9ToIntegerERKS3_EEE4NodeEEEPT_iPKcj @1874
    _ZN6RakNet12OP_NEW_ARRAYIPN14DataStructures4HashINS_9RakStringEPNS_11RelayPlugin17StrAndGuidAndRoomELj8096EXadL_ZNS3_9ToIntegerERKS3_EEE4NodeEEEPT_iPKcj @1875
    _ZN6RakNet12OP_NEW_ARRAYIPN14DataStructures4HashINS_9RakStringEPNS_17StatisticsHistory17TimeAndValueQueueELj32EXadL_ZNS3_9ToIntegerERKS3_EEE4NodeEEEPT_iPKcj @1876
    _ZN6RakNet12OP_NEW_ARRAYIPN14DataStructures4HashINS_9RakStringEPNS_4RPC49LocalSlotELj256EXadL_ZNS3_9ToIntegerERKS3_EEE4NodeEEEPT_iPKcj @1877
    _ZN6RakNet12OP_NEW_ARRAYIPN14DataStructures4HashINS_9RakStringES3_Lj16EXadL_ZNS3_9ToIntegerERKS3_EEE4NodeEEEPT_iPKcj @1878
    _ZN6RakNet12OP_NEW_ARRAYIPN14DataStructures4HashIyPNS_13TM_TeamMemberELj256EXadL_ZNS3_8ToUint32ERKyEEE4NodeEEEPT_iPKcj @1879
    _ZN6RakNet12OP_NEW_ARRAYIPN14DataStructures4HashIyPNS_7TM_TeamELj256EXadL_ZNS3_8ToUint32ERKyEEE4NodeEEEPT_iPKcj @1880
    _ZN6RakNet12OP_NEW_ARRAYIPN14DataStructures4PageIjPNS1_5Table3RowELi16EEEEEPT_iPKcj @1881
    _ZN6RakNet12OP_NEW_ARRAYIPN14DataStructures5Table3RowEEEPT_iPKcj @1882
    _ZN6RakNet12OP_NEW_ARRAYIPN14DataStructures5Table4CellEEEPT_iPKcj @1883
    _ZN6RakNet12OP_NEW_ARRAYIPNS_10ReadyEvent14ReadyEventNodeEEEPT_iPKcj @1884
    _ZN6RakNet12OP_NEW_ARRAYIPNS_11CloudServer10GetRequestEEEPT_iPKcj @1885
    _ZN6RakNet12OP_NEW_ARRAYIPNS_11CloudServer12RemoteServerEEEPT_iPKcj @1886
    _ZN6RakNet12OP_NEW_ARRAYIPNS_11CloudServer13CloudDataListEEEPT_iPKcj @1887
    _ZN6RakNet12OP_NEW_ARRAYIPNS_11CloudServer15KeySubscriberIDEEEPT_iPKcj @1888
    _ZN6RakNet12OP_NEW_ARRAYIPNS_11CloudServer17RemoteCloudClientEEEPT_iPKcj @1889
    _ZN6RakNet12OP_NEW_ARRAYIPNS_11CloudServer29BufferedGetResponseFromServerEEEPT_iPKcj @1890
    _ZN6RakNet12OP_NEW_ARRAYIPNS_11CloudServer9CloudDataEEEPT_iPKcj @1891
    _ZN6RakNet12OP_NEW_ARRAYIPNS_11RelayPlugin17StrAndGuidAndRoomEEEPT_iPKcj @1892
    _ZN6RakNet12OP_NEW_ARRAYIPNS_11RelayPlugin8RP_GroupEEEPT_iPKcj @1893
    _ZN6RakNet12OP_NEW_ARRAYIPNS_12UDPForwarder12ForwardEntryEEEPT_iPKcj @1894
    _ZN6RakNet12OP_NEW_ARRAYIPNS_12UDPForwarder20StopForwardingStructEEEPT_iPKcj @1895
    _ZN6RakNet12OP_NEW_ARRAYIPNS_12UDPForwarder26StartForwardingInputStructEEEPT_iPKcj @1896
    _ZN6RakNet12OP_NEW_ARRAYIPNS_13CloudQueryRowEEEPT_iPKcj @1897
    _ZN6RakNet12OP_NEW_ARRAYIPNS_13RakNetSocket2EEEPT_iPKcj @1898
    _ZN6RakNet12OP_NEW_ARRAYIPNS_13SystemAddressEEEPT_iPKcj @1899
    _ZN6RakNet12OP_NEW_ARRAYIPNS_13TM_TeamMemberEEEPT_iPKcj @1900
    _ZN6RakNet12OP_NEW_ARRAYIPNS_14Connection_RM3EEEPT_iPKcj @1901
    _ZN6RakNet12OP_NEW_ARRAYIPNS_14InternalPacketEEEPT_iPKcj @1902
    _ZN6RakNet12OP_NEW_ARRAYIPNS_14RNS2RecvStructEEEPT_iPKcj @1903
    _ZN6RakNet12OP_NEW_ARRAYIPNS_14UDPProxyClient15PingServerGroupEEEPT_iPKcj @1904
    _ZN6RakNet12OP_NEW_ARRAYIPNS_15HTTPConnection27RequestEEEPT_iPKcj @1905
    _ZN6RakNet12OP_NEW_ARRAYIPNS_15ReplicaManager38RM3WorldEEEPT_iPKcj @1906
    _ZN6RakNet12OP_NEW_ARRAYIPNS_15TelnetTransport12TelnetClientEEEPT_iPKcj @1907
    _ZN6RakNet12OP_NEW_ARRAYIPNS_16ConnectionGraph212RemoteSystemEEEPT_iPKcj @1908
    _ZN6RakNet12OP_NEW_ARRAYIPNS_16FileListProgressEEEPT_iPKcj @1909
    _ZN6RakNet12OP_NEW_ARRAYIPNS_16FileListTransfer10FileToPushEEEPT_iPKcj @1910
    _ZN6RakNet12OP_NEW_ARRAYIPNS_16FileListTransfer19FileToPushRecipientEEEPT_iPKcj @1911
    _ZN6RakNet12OP_NEW_ARRAYIPNS_16PluginInterface2EEEPT_iPKcj @1912
    _ZN6RakNet12OP_NEW_ARRAYIPNS_17RemoteSystemIndexEEEPT_iPKcj @1913
    _ZN6RakNet12OP_NEW_ARRAYIPNS_17StatisticsHistory13TrackedObjectEEEPT_iPKcj @1914
    _ZN6RakNet12OP_NEW_ARRAYIPNS_17StatisticsHistory17TimeAndValueQueueEEEPT_iPKcj @1915
    _ZN6RakNet12OP_NEW_ARRAYIPNS_18SplitPacketChannelEEEPT_iPKcj @1916
    _ZN6RakNet12OP_NEW_ARRAYIPNS_19FullyConnectedMesh215FCM2ParticipantEEEPT_iPKcj @1917
    _ZN6RakNet12OP_NEW_ARRAYIPNS_19FullyConnectedMesh222VerifiedJoinInProgressEEEPT_iPKcj @1918
    _ZN6RakNet12OP_NEW_ARRAYIPNS_19UDPProxyCoordinator17ForwardingRequestEEEPT_iPKcj @1919
    _ZN6RakNet12OP_NEW_ARRAYIPNS_20TwoWayAuthentication27NonceAndRemoteSystemRequestEEEPT_iPKcj @1920
    _ZN6RakNet12OP_NEW_ARRAYIPNS_21NatPunchthroughServer17ConnectionAttemptEEEPT_iPKcj @1921
    _ZN6RakNet12OP_NEW_ARRAYIPNS_21NatPunchthroughServer4UserEEEPT_iPKcj @1922
    _ZN6RakNet12OP_NEW_ARRAYIPNS_22CloudServerQueryFilterEEEPT_iPKcj @1923
    _ZN6RakNet12OP_NEW_ARRAYIPNS_22CommandParserInterfaceEEEPT_iPKcj @1924
    _ZN6RakNet12OP_NEW_ARRAYIPNS_23LastSerializationResultEEEPT_iPKcj @1925
    _ZN6RakNet12OP_NEW_ARRAYIPNS_23Rackspace2EventCallbackEEEPT_iPKcj @1926
    _ZN6RakNet12OP_NEW_ARRAYIPNS_23VariableDeltaSerializer20ChangedVariablesListEEEPT_iPKcj @1927
    _ZN6RakNet12OP_NEW_ARRAYIPNS_23VariableDeltaSerializer27RemoteSystemVariableHistoryEEEPT_iPKcj @1928
    _ZN6RakNet12OP_NEW_ARRAYIPNS_4RPC413LocalCallbackEEEPT_iPKcj @1929
    _ZN6RakNet12OP_NEW_ARRAYIPNS_4RPC49LocalSlotEEEPT_iPKcj @1930
    _ZN6RakNet12OP_NEW_ARRAYIPNS_6PacketEEEPT_iPKcj @1931
    _ZN6RakNet12OP_NEW_ARRAYIPNS_7RakPeer17SocketQueryOutputEEEPT_iPKcj @1932
    _ZN6RakNet12OP_NEW_ARRAYIPNS_7RakPeer18RemoteSystemStructEEEPT_iPKcj @1933
    _ZN6RakNet12OP_NEW_ARRAYIPNS_7RakPeer21BufferedCommandStructEEEPT_iPKcj @1934
    _ZN6RakNet12OP_NEW_ARRAYIPNS_7RakPeer25RequestedConnectionStructEEEPT_iPKcj @1935
    _ZN6RakNet12OP_NEW_ARRAYIPNS_7RakPeer9BanStructEEEPT_iPKcj @1936
    _ZN6RakNet12OP_NEW_ARRAYIPNS_7Router215ConnnectRequestEEEPT_iPKcj @1937
    _ZN6RakNet12OP_NEW_ARRAYIPNS_7TM_TeamEEEPT_iPKcj @1938
    _ZN6RakNet12OP_NEW_ARRAYIPNS_8Replica3EEEPT_iPKcj @1939
    _ZN6RakNet12OP_NEW_ARRAYIPNS_8TM_WorldEEEPT_iPKcj @1940
    _ZN6RakNet12OP_NEW_ARRAYIPNS_9BitStreamEEEPT_iPKcj @1941
    _ZN6RakNet12OP_NEW_ARRAYIPNS_9FilterSetEEEPT_iPKcj @1942
    _ZN6RakNet12OP_NEW_ARRAYIPNS_9RakString12SharedStringEEEPT_iPKcj @1943
    _ZN6RakNet12OP_NEW_ARRAYIPcEEPT_iPKcj @1944
    _ZN6RakNet12OP_NEW_ARRAYIPvEEPT_iPKcj @1945
    _ZN6RakNet12OP_NEW_ARRAYIbEEPT_iPKcj @1946
    _ZN6RakNet12OP_NEW_ARRAYIcEEPT_iPKcj @1947
    _ZN6RakNet12OP_NEW_ARRAYIhEEPT_iPKcj @1948
    _ZN6RakNet12OP_NEW_ARRAYIiEEPT_iPKcj @1949
    _ZN6RakNet12OP_NEW_ARRAYIjEEPT_iPKcj @1950
    _ZN6RakNet12OP_NEW_ARRAYItEEPT_iPKcj @1951
    _ZN6RakNet12OP_NEW_ARRAYIwEEPT_iPKcj @1952
    _ZN6RakNet12OP_NEW_ARRAYIyEEPT_iPKcj @1953
    _ZN6RakNet12PacketLogger10FormatLineEPcPKcS3_jjS3_jyRKNS_13SystemAddressES6_jjjj @1954
    _ZN6RakNet12PacketLogger10FormatLineEPcPKcS3_jjhjyRKNS_13SystemAddressES6_jjjj @1955
    _ZN6RakNet12PacketLogger10IDTOStringEh @1956
    _ZN6RakNet12PacketLogger10SetPrintIDEb @1957
    _ZN6RakNet12PacketLogger11GetInstanceEv @1958
    _ZN6RakNet12PacketLogger12GetLocalTimeEPc @1959
    _ZN6RakNet12PacketLogger12SetPrintAcksEb @1960
    _ZN6RakNet12PacketLogger14BaseIDTOStringEh @1961
    _ZN6RakNet12PacketLogger14UserIDTOStringEh @1962
    _ZN6RakNet12PacketLogger15DestroyInstanceEPS0_ @1963
    _ZN6RakNet12PacketLogger16OnInternalPacketEPNS_14InternalPacketEjNS_13SystemAddressEji @1964
    _ZN6RakNet12PacketLogger16OnPushBackPacketEPKcjNS_13SystemAddressE @1965
    _ZN6RakNet12PacketLogger18OnDirectSocketSendEPKcjNS_13SystemAddressE @1966
    _ZN6RakNet12PacketLogger18WriteMiscellaneousEPKcS2_ @1967
    _ZN6RakNet12PacketLogger20SetLogDirectMessagesEb @1968
    _ZN6RakNet12PacketLogger21OnDirectSocketReceiveEPKcjNS_13SystemAddressE @1969
    _ZN6RakNet12PacketLogger30OnReliabilityLayerNotificationEPKcjNS_13SystemAddressEb @1970
    _ZN6RakNet12PacketLogger5OnAckEjNS_13SystemAddressEj @1971
    _ZN6RakNet12PacketLogger8AddToLogEPKc @1972
    _ZN6RakNet12PacketLogger8WriteLogEPKc @1973
    _ZN6RakNet12PacketLogger9LogHeaderEv @1974
    _ZN6RakNet12PacketLogger9SetPrefixEPKc @1975
    _ZN6RakNet12PacketLogger9SetSuffixEPKc @1976
    _ZN6RakNet12PacketLoggerC1Ev @1977
    _ZN6RakNet12PacketLoggerC2Ev @1978
    _ZN6RakNet12PacketLoggerD0Ev @1979
    _ZN6RakNet12PacketLoggerD1Ev @1980
    _ZN6RakNet12PacketLoggerD2Ev @1981
    _ZN6RakNet12RNS2_Berkley10BindSharedEPNS_26RNS2_BerkleyBindParametersEPKcj @1982
    _ZN6RakNet12RNS2_Berkley12RecvFromLoopEPv@4 @1983
    _ZN6RakNet12RNS2_Berkley12SetIPHdrInclEi @1984
    _ZN6RakNet12RNS2_Berkley14BindSharedIPV4EPNS_26RNS2_BerkleyBindParametersEPKcj @1985
    _ZN6RakNet12RNS2_Berkley15RecvFromLoopIntEv @1986
    _ZN6RakNet12RNS2_Berkley16RecvFromBlockingEPNS_14RNS2RecvStructE @1987
    _ZN6RakNet12RNS2_Berkley16SetDoNotFragmentEi @1988
    _ZN6RakNet12RNS2_Berkley16SetSocketOptionsEv @1989
    _ZN6RakNet12RNS2_Berkley18BindSharedIPV4And6EPNS_26RNS2_BerkleyBindParametersEPKcj @1990
    _ZN6RakNet12RNS2_Berkley18SetBroadcastSocketEi @1991
    _ZN6RakNet12RNS2_Berkley20GetSystemAddressIPV4EiPNS_13SystemAddressE @1992
    _ZN6RakNet12RNS2_Berkley20RecvFromBlockingIPV4EPNS_14RNS2RecvStructE @1993
    _ZN6RakNet12RNS2_Berkley20SetNonBlockingSocketEm @1994
    _ZN6RakNet12RNS2_Berkley23CreateRecvPollingThreadEi @1995
    _ZN6RakNet12RNS2_Berkley24GetSystemAddressIPV4And6EiPNS_13SystemAddressE @1996
    _ZN6RakNet12RNS2_Berkley24RecvFromBlockingIPV4And6EPNS_14RNS2RecvStructE @1997
    _ZN6RakNet12RNS2_Berkley27SignalStopRecvPollingThreadEv @1998
    _ZN6RakNet12RNS2_Berkley28BlockOnStopRecvPollingThreadEv @1999
    _ZN6RakNet12RNS2_BerkleyC1Ev @2000
    _ZN6RakNet12RNS2_BerkleyC2Ev @2001
    _ZN6RakNet12RNS2_BerkleyD0Ev @2002
    _ZN6RakNet12RNS2_BerkleyD1Ev @2003
    _ZN6RakNet12RNS2_BerkleyD2Ev @2004
    _ZN6RakNet12RNS2_Windows22GetSocketLayerOverrideEv @2005
    _ZN6RakNet12RNS2_Windows22SetSocketLayerOverrideEPNS_19SocketLayerOverrideE @2006
    _ZN6RakNet12RNS2_Windows4BindEPNS_26RNS2_BerkleyBindParametersEPKcj @2007
    _ZN6RakNet12RNS2_Windows4SendEPNS_19RNS2_SendParametersEPKcj @2008
    _ZN6RakNet12RNS2_Windows7GetMyIPEPNS_13SystemAddressE @2009
    _ZN6RakNet12RNS2_WindowsC1Ev @2010
    _ZN6RakNet12RNS2_WindowsC2Ev @2011
    _ZN6RakNet12RNS2_WindowsD0Ev @2012
    _ZN6RakNet12RNS2_WindowsD1Ev @2013
    _ZN6RakNet12RNS2_WindowsD2Ev @2014
    _ZN6RakNet12RakNetRandom12FillBufferMTEPvj @2015
    _ZN6RakNet12RakNetRandom6SeedMTEj @2016
    _ZN6RakNet12RakNetRandom8RandomMTEv @2017
    _ZN6RakNet12RakNetRandom8ReloadMTEv @2018
    _ZN6RakNet12RakNetRandom9FrandomMTEv @2019
    _ZN6RakNet12RakNetRandomC1Ev @2020
    _ZN6RakNet12RakNetRandomC2Ev @2021
    _ZN6RakNet12RakNetRandomD1Ev @2022
    _ZN6RakNet12RakNetRandomD2Ev @2023
    _ZN6RakNet12RemoteClient12SendOrBufferEPPKcPKji @2024
    _ZN6RakNet12RemoteClient4RecvEPci @2025
    _ZN6RakNet12RemoteClient4SendEPKcj @2026
    _ZN6RakNet12RemoteClient5ResetEv @2027
    _ZN6RakNet12RemoteClient9SetActiveEb @2028
    _ZN6RakNet12RemoteClientC1Ev @2029
    _ZN6RakNet12RemoteClientD1Ev @2030
    _ZN6RakNet12TCPInterface10ReceiveIntEv @2031
    _ZN6RakNet12TCPInterface11GetInstanceEv @2032
    _ZN6RakNet12TCPInterface12AttachPluginEPNS_16PluginInterface2E @2033
    _ZN6RakNet12TCPInterface12DetachPluginEPNS_16PluginInterface2E @2034
    _ZN6RakNet12TCPInterface13SocketConnectEPKcttS2_ @2035
    _ZN6RakNet12TCPInterface14AllocatePacketEj @2036
    _ZN6RakNet12TCPInterface14PushBackPacketEPNS_6PacketEb @2037
    _ZN6RakNet12TCPInterface15CloseConnectionENS_13SystemAddressE @2038
    _ZN6RakNet12TCPInterface15DestroyInstanceEPS0_ @2039
    _ZN6RakNet12TCPInterface16DeallocatePacketEPNS_6PacketE @2040
    _ZN6RakNet12TCPInterface17HasLostConnectionEv @2041
    _ZN6RakNet12TCPInterface17ReceiveHasPacketsEv @2042
    _ZN6RakNet12TCPInterface18CreateListenSocketEtttPKc @2043
    _ZN6RakNet12TCPInterface18ThisPtrPlusSysAddrC1Ev @2044
    _ZN6RakNet12TCPInterface24HasNewIncomingConnectionEv @2045
    _ZN6RakNet12TCPInterface26HasFailedConnectionAttemptEv @2046
    _ZN6RakNet12TCPInterface29HasCompletedConnectionAttemptEv @2047
    _ZN6RakNet12TCPInterface4SendEPKcjRKNS_13SystemAddressEb @2048
    _ZN6RakNet12TCPInterface4StopEv @2049
    _ZN6RakNet12TCPInterface5StartEtttitPKc @2050
    _ZN6RakNet12TCPInterface7ConnectEPKctbtS2_ @2051
    _ZN6RakNet12TCPInterface7ReceiveEv @2052
    _ZN6RakNet12TCPInterface8SendListEPPKcPKjiRKNS_13SystemAddressEb @2053
    _ZN6RakNet12TCPInterfaceC1Ev @2054
    _ZN6RakNet12TCPInterfaceC2Ev @2055
    _ZN6RakNet12TCPInterfaceD0Ev @2056
    _ZN6RakNet12TCPInterfaceD1Ev @2057
    _ZN6RakNet12TCPInterfaceD2Ev @2058
    _ZN6RakNet12TeamBalancer10TeamMemberC1Ev @2059
    _ZN6RakNet12TeamBalancer10TeamMemberaSERKS1_ @2060
    _ZN6RakNet12TeamBalancer11GetInstanceEv @2061
    _ZN6RakNet12TeamBalancer12DeleteMemberEy @2062
    _ZN6RakNet12TeamBalancer12NotifyNoTeamEyNS_10RakNetGUIDE @2063
    _ZN6RakNet12TeamBalancer12RemoveByGuidENS_10RakNetGUIDE @2064
    _ZN6RakNet12TeamBalancer12SetLockTeamsEb @2065
    _ZN6RakNet12TeamBalancer13AddTeamMemberERKNS0_10TeamMemberE @2066
    _ZN6RakNet12TeamBalancer13OnTeamsLockedEPNS_6PacketE @2067
    _ZN6RakNet12TeamBalancer14OnTeamAssignedEPNS_6PacketE @2068
    _ZN6RakNet12TeamBalancer14RequestAnyTeamEy @2069
    _ZN6RakNet12TeamBalancer15DestroyInstanceEPS0_ @2070
    _ZN6RakNet12TeamBalancer16OnRequestAnyTeamEPNS_6PacketE @2071
    _ZN6RakNet12TeamBalancer16RemoveTeamMemberEj @2072
    _ZN6RakNet12TeamBalancer16SetTeamSizeLimitEht @2073
    _ZN6RakNet12TeamBalancer16SwitchMemberTeamEjh @2074
    _ZN6RakNet12TeamBalancer17NotifyTeamsLockedENS_10RakNetGUIDEh @2075
    _ZN6RakNet12TeamBalancer17SetForceEvenTeamsEb @2076
    _ZN6RakNet12TeamBalancer18GetNextDefaultTeamEv @2077
    _ZN6RakNet12TeamBalancer18OnClosedConnectionERKNS_13SystemAddressENS_10RakNetGUIDENS_24PI2_LostConnectionReasonE @2078
    _ZN6RakNet12TeamBalancer19NotifyTeamAssigmentEj @2079
    _ZN6RakNet12TeamBalancer19OnCancelTeamRequestEPNS_6PacketE @2080
    _ZN6RakNet12TeamBalancer19RequestSpecificTeamEyh @2081
    _ZN6RakNet12TeamBalancer20GetMinMaxTeamMembersERiS1_ @2082
    _ZN6RakNet12TeamBalancer21GetOverpopulatedTeamsERN14DataStructures4ListIhEEi @2083
    _ZN6RakNet12TeamBalancer21OnRequestSpecificTeamEPNS_6PacketE @2084
    _ZN6RakNet12TeamBalancer23NotifyTeamSwitchPendingENS_10RakNetGUIDEhy @2085
    _ZN6RakNet12TeamBalancer23OnStatusUpdateToNewHostEPNS_6PacketE @2086
    _ZN6RakNet12TeamBalancer24SwapTeamMembersByRequestEjj @2087
    _ZN6RakNet12TeamBalancer24TeamsWouldBeEvenOnSwitchEhh @2088
    _ZN6RakNet12TeamBalancer25CancelRequestSpecificTeamEy @2089
    _ZN6RakNet12TeamBalancer27GetMemberIndexToSwitchTeamsERKN14DataStructures4ListIhEEh @2090
    _ZN6RakNet12TeamBalancer28OnRequestedTeamChangePendingEPNS_6PacketE @2091
    _ZN6RakNet12TeamBalancer29MoveMemberThatWantsToJoinTeamEh @2092
    _ZN6RakNet12TeamBalancer29SetDefaultAssignmentAlgorithmENS0_25DefaultAssigmentAlgorithmE @2093
    _ZN6RakNet12TeamBalancer32TeamWouldBeUnderpopulatedOnLeaveEhj @2094
    _ZN6RakNet12TeamBalancer34TeamWouldBeOverpopulatedOnAdditionEhj @2095
    _ZN6RakNet12TeamBalancer37MoveMemberThatWantsToJoinTeamInternalEh @2096
    _ZN6RakNet12TeamBalancer8OnAttachEv @2097
    _ZN6RakNet12TeamBalancer9EvenTeamsEv @2098
    _ZN6RakNet12TeamBalancer9OnReceiveEPNS_6PacketE @2099
    _ZN6RakNet12TeamBalancerC1Ev @2100
    _ZN6RakNet12TeamBalancerC2Ev @2101
    _ZN6RakNet12TeamBalancerD0Ev @2102
    _ZN6RakNet12TeamBalancerD1Ev @2103
    _ZN6RakNet12TeamBalancerD2Ev @2104
    _ZN6RakNet12UDPForwarder12ForwardEntryC1Ev @2105
    _ZN6RakNet12UDPForwarder12ForwardEntryC2Ev @2106
    _ZN6RakNet12UDPForwarder12ForwardEntryD1Ev @2107
    _ZN6RakNet12UDPForwarder12ForwardEntryD2Ev @2108
    _ZN6RakNet12UDPForwarder14StopForwardingENS_13SystemAddressES1_ @2109
    _ZN6RakNet12UDPForwarder15StartForwardingENS_13SystemAddressES1_jPKctPtPj @2110
    _ZN6RakNet12UDPForwarder18UpdateUDPForwarderEv @2111
    _ZN6RakNet12UDPForwarder20SetMaxForwardEntriesEt @2112
    _ZN6RakNet12UDPForwarder20StopForwardingStructC1Ev @2113
    _ZN6RakNet12UDPForwarder26StartForwardingInputStructC1Ev @2114
    _ZN6RakNet12UDPForwarder26StartForwardingInputStructD1Ev @2115
    _ZN6RakNet12UDPForwarder7StartupEv @2116
    _ZN6RakNet12UDPForwarder8RecvFromEjPNS0_12ForwardEntryE @2117
    _ZN6RakNet12UDPForwarder8ShutdownEv @2118
    _ZN6RakNet12UDPForwarderC1Ev @2119
    _ZN6RakNet12UDPForwarderC2Ev @2120
    _ZN6RakNet12UDPForwarderD0Ev @2121
    _ZN6RakNet12UDPForwarderD1Ev @2122
    _ZN6RakNet12UDPForwarderD2Ev @2123
    _ZN6RakNet13AddressOrGUID9ToIntegerERKS0_ @2124
    _ZN6RakNet13AddressOrGUIDC1EPNS_6PacketE @2125
    _ZN6RakNet13AddressOrGUIDC1ERKNS_10RakNetGUIDE @2126
    _ZN6RakNet13AddressOrGUIDC1ERKNS_13SystemAddressE @2127
    _ZN6RakNet13AddressOrGUIDC1ERKS0_ @2128
    _ZN6RakNet13AddressOrGUIDC1Ev @2129
    _ZN6RakNet13AddressOrGUIDC2EPNS_6PacketE @2130
    _ZN6RakNet13AddressOrGUIDaSERKNS_13SystemAddressE @2131
    _ZN6RakNet13AddressOrGUIDaSERKS0_ @2132
    _ZN6RakNet13CloudQueryRow9SerializeEbPNS_9BitStreamEPNS_14CloudAllocatorE @2133
    _ZN6RakNet13CloudQueryRowC1Ev @2134
    _ZN6RakNet13CloudQueryRowD1Ev @2135
    _ZN6RakNet13ConsoleServer10ShowPromptENS_13SystemAddressE @2136
    _ZN6RakNet13ConsoleServer11GetInstanceEv @2137
    _ZN6RakNet13ConsoleServer11ListParsersENS_13SystemAddressE @2138
    _ZN6RakNet13ConsoleServer15DestroyInstanceEPS0_ @2139
    _ZN6RakNet13ConsoleServer16AddCommandParserEPNS_22CommandParserInterfaceE @2140
    _ZN6RakNet13ConsoleServer19RemoveCommandParserEPNS_22CommandParserInterfaceE @2141
    _ZN6RakNet13ConsoleServer20SetTransportProviderEPNS_18TransportInterfaceEt @2142
    _ZN6RakNet13ConsoleServer6UpdateEv @2143
    _ZN6RakNet13ConsoleServer9SetPromptEPKc @2144
    _ZN6RakNet13ConsoleServerC1Ev @2145
    _ZN6RakNet13ConsoleServerC2Ev @2146
    _ZN6RakNet13ConsoleServerD1Ev @2147
    _ZN6RakNet13ConsoleServerD2Ev @2148
    _ZN6RakNet13FilterSetCompERKiRKPNS_9FilterSetE @2149
    _ZN6RakNet13IRNS2_Berkley11IsPortInUseEtPKcti @2150
    _ZN6RakNet13IRNS2_BerkleyC2Ev @2151
    _ZN6RakNet13IRNS2_BerkleyD2Ev @2152
    _ZN6RakNet13MessageFilter11GetInstanceEv @2153
    _ZN6RakNet13MessageFilter12SetAllowRPC4EbPKci @2154
    _ZN6RakNet13MessageFilter15DeleteFilterSetEi @2155
    _ZN6RakNet13MessageFilter15DestroyInstanceEPS0_ @2156
    _ZN6RakNet13MessageFilter15OnNewConnectionERKNS_13SystemAddressENS_10RakNetGUIDEb @2157
    _ZN6RakNet13MessageFilter16GetFilterSetByIDEi @2158
    _ZN6RakNet13MessageFilter16OnInvalidMessageEPNS_9FilterSetENS_13AddressOrGUIDEh @2159
    _ZN6RakNet13MessageFilter16SetFilterMaxTimeEibji @2160
    _ZN6RakNet13MessageFilter17SetAllowMessageIDEbiii @2161
    _ZN6RakNet13MessageFilter18GetSystemFilterSetENS_13AddressOrGUIDE @2162
    _ZN6RakNet13MessageFilter18OnClosedConnectionERKNS_13SystemAddressENS_10RakNetGUIDENS_24PI2_LostConnectionReasonE @2163
    _ZN6RakNet13MessageFilter18SetSystemFilterSetENS_13AddressOrGUIDEi @2164
    _ZN6RakNet13MessageFilter18SetTimeoutCallbackEiPvPFvPNS_16RakPeerInterfaceENS_13AddressOrGUIDEiS1_E @2165
    _ZN6RakNet13MessageFilter19DeallocateFilterSetEPNS_9FilterSetE @2166
    _ZN6RakNet13MessageFilter21GetFilterSetIDByIndexEj @2167
    _ZN6RakNet13MessageFilter28SetActionOnDisallowedMessageEbbji @2168
    _ZN6RakNet13MessageFilter28SetDisallowedMessageCallbackEiPvPFvPNS_16RakPeerInterfaceENS_13AddressOrGUIDEiS1_hE @2169
    _ZN6RakNet13MessageFilter32SetAutoAddNewConnectionsToFilterEi @2170
    _ZN6RakNet13MessageFilter5ClearEv @2171
    _ZN6RakNet13MessageFilter6UpdateEv @2172
    _ZN6RakNet13MessageFilter9OnReceiveEPNS_6PacketE @2173
    _ZN6RakNet13MessageFilterC1Ev @2174
    _ZN6RakNet13MessageFilterC2Ev @2175
    _ZN6RakNet13MessageFilterD0Ev @2176
    _ZN6RakNet13MessageFilterD1Ev @2177
    _ZN6RakNet13MessageFilterD2Ev @2178
    _ZN6RakNet13PacketizedTCP11GetInstanceEv @2179
    _ZN6RakNet13PacketizedTCP15CloseConnectionENS_13SystemAddressE @2180
    _ZN6RakNet13PacketizedTCP15DestroyInstanceEPS0_ @2181
    _ZN6RakNet13PacketizedTCP17HasLostConnectionEv @2182
    _ZN6RakNet13PacketizedTCP19AddToConnectionListERKNS_13SystemAddressE @2183
    _ZN6RakNet13PacketizedTCP19ClearAllConnectionsEv @2184
    _ZN6RakNet13PacketizedTCP20ReturnOutgoingPacketEv @2185
    _ZN6RakNet13PacketizedTCP24HasNewIncomingConnectionEv @2186
    _ZN6RakNet13PacketizedTCP24RemoveFromConnectionListERKNS_13SystemAddressE @2187
    _ZN6RakNet13PacketizedTCP25PushNotificationsToQueuesEv @2188
    _ZN6RakNet13PacketizedTCP26HasFailedConnectionAttemptEv @2189
    _ZN6RakNet13PacketizedTCP29HasCompletedConnectionAttemptEv @2190
    _ZN6RakNet13PacketizedTCP4SendEPKcjRKNS_13SystemAddressEb @2191
    _ZN6RakNet13PacketizedTCP4StopEv @2192
    _ZN6RakNet13PacketizedTCP7ReceiveEv @2193
    _ZN6RakNet13PacketizedTCP8SendListEPPKcPKjiRKNS_13SystemAddressEb @2194
    _ZN6RakNet13PacketizedTCPC1Ev @2195
    _ZN6RakNet13PacketizedTCPC2Ev @2196
    _ZN6RakNet13PacketizedTCPD0Ev @2197
    _ZN6RakNet13PacketizedTCPD1Ev @2198
    _ZN6RakNet13PacketizedTCPD2Ev @2199
    _ZN6RakNet13RakNetSocket213SetSocketTypeENS_8RNS2TypeE @2200
    _ZN6RakNet13RakNetSocket214DomainNameToIPEPKcPc @2201
    _ZN6RakNet13RakNetSocket219SetRecvEventHandlerEPNS_16RNS2EventHandlerE @2202
    _ZN6RakNet13RakNetSocket228SetUserConnectionSocketIndexEj @2203
    _ZN6RakNet13RakNetSocket27GetMyIPEPNS_13SystemAddressE @2204
    _ZN6RakNet13RakNetSocket2C1Ev @2205
    _ZN6RakNet13RakNetSocket2C2Ev @2206
    _ZN6RakNet13RakNetSocket2D0Ev @2207
    _ZN6RakNet13RakNetSocket2D1Ev @2208
    _ZN6RakNet13RakNetSocket2D2Ev @2209
    _ZN6RakNet13SignaledEvent10CloseEventEv @2210
    _ZN6RakNet13SignaledEvent11WaitOnEventEi @2211
    _ZN6RakNet13SignaledEvent8SetEventEv @2212
    _ZN6RakNet13SignaledEvent9InitEventEv @2213
    _ZN6RakNet13SignaledEventC1Ev @2214
    _ZN6RakNet13SignaledEventC2Ev @2215
    _ZN6RakNet13SignaledEventD1Ev @2216
    _ZN6RakNet13SignaledEventD2Ev @2217
    _ZN6RakNet13SystemAddress10FromStringEPKcci @2218
    _ZN6RakNet13SystemAddress12IsLANAddressEv @2219
    _ZN6RakNet13SystemAddress13SetToLoopbackEh @2220
    _ZN6RakNet13SystemAddress13SetToLoopbackEv @2221
    _ZN6RakNet13SystemAddress15FixForIPVersionERKS0_ @2222
    _ZN6RakNet13SystemAddress16SetBinaryAddressEPKcc @2223
    _ZN6RakNet13SystemAddress16SetPortHostOrderEt @2224
    _ZN6RakNet13SystemAddress19SetPortNetworkOrderEt @2225
    _ZN6RakNet13SystemAddress22FromStringExplicitPortEPKcti @2226
    _ZN6RakNet13SystemAddress4sizeEv @2227
    _ZN6RakNet13SystemAddress8CopyPortERKS0_ @2228
    _ZN6RakNet13SystemAddress9ToIntegerERKS0_ @2229
    _ZN6RakNet13SystemAddressC1EPKc @2230
    _ZN6RakNet13SystemAddressC1EPKct @2231
    _ZN6RakNet13SystemAddressC1Ev @2232
    _ZN6RakNet13SystemAddressC2EPKc @2233
    _ZN6RakNet13SystemAddressC2EPKct @2234
    _ZN6RakNet13SystemAddressC2Ev @2235
    _ZN6RakNet13SystemAddressaSERKS0_ @2236
    _ZN6RakNet13TM_TeamMember11GetInstanceEv @2237
    _ZN6RakNet13TM_TeamMember11RequestTeamENS_13TeamSelectionE @2238
    _ZN6RakNet13TM_TeamMember13AddToTeamListEPNS_7TM_TeamE @2239
    _ZN6RakNet13TM_TeamMember13LeaveAllTeamsEh @2240
    _ZN6RakNet13TM_TeamMember14StoreLastTeamsEv @2241
    _ZN6RakNet13TM_TeamMember15DestroyInstanceEPS0_ @2242
    _ZN6RakNet13TM_TeamMember17CancelTeamRequestEPNS_7TM_TeamE @2243
    _ZN6RakNet13TM_TeamMember17RequestTeamSwitchEPNS_7TM_TeamES2_ @2244
    _ZN6RakNet13TM_TeamMember19AddToRequestedTeamsEPNS_7TM_TeamE @2245
    _ZN6RakNet13TM_TeamMember19AddToRequestedTeamsEPNS_7TM_TeamES2_ @2246
    _ZN6RakNet13TM_TeamMember19UpdateListsToNoTeamEh @2247
    _ZN6RakNet13TM_TeamMember21GetCurrentTeamByIndexEj @2248
    _ZN6RakNet13TM_TeamMember21SerializeConstructionEPNS_9BitStreamE @2249
    _ZN6RakNet13TM_TeamMember23DeserializeConstructionEPNS_11TeamManagerEPNS_9BitStreamE @2250
    _ZN6RakNet13TM_TeamMember24RemoveFromRequestedTeamsEPNS_7TM_TeamE @2251
    _ZN6RakNet13TM_TeamMember25UpdateTeamsRequestedToAnyEv @2252
    _ZN6RakNet13TM_TeamMember26RemoveFromAllTeamsInternalEv @2253
    _ZN6RakNet13TM_TeamMember26UpdateTeamsRequestedToNoneEv @2254
    _ZN6RakNet13TM_TeamMember30RemoveFromSpecificTeamInternalEPNS_7TM_TeamE @2255
    _ZN6RakNet13TM_TeamMember8SetOwnerEPv @2256
    _ZN6RakNet13TM_TeamMember8ToUint32ERKy @2257
    _ZN6RakNet13TM_TeamMember9LeaveTeamEPNS_7TM_TeamEh @2258
    _ZN6RakNet13TM_TeamMemberC1Ev @2259
    _ZN6RakNet13TM_TeamMemberC2Ev @2260
    _ZN6RakNet13TM_TeamMemberD0Ev @2261
    _ZN6RakNet13TM_TeamMemberD1Ev @2262
    _ZN6RakNet13TM_TeamMemberD2Ev @2263
    _ZN6RakNet13TeamSelection12AnyAvailableEv @2264
    _ZN6RakNet13TeamSelection12SpecificTeamEPNS_7TM_TeamE @2265
    _ZN6RakNet13TeamSelection6NoTeamEh @2266
    _ZN6RakNet13TeamSelectionC1ENS_12JoinTeamTypeE @2267
    _ZN6RakNet13TeamSelectionC1ENS_12JoinTeamTypeEPNS_7TM_TeamE @2268
    _ZN6RakNet13TeamSelectionC1ENS_12JoinTeamTypeEh @2269
    _ZN6RakNet13TeamSelectionC1Ev @2270
    _ZN6RakNet13TeamSelectionC2ENS_12JoinTeamTypeE @2271
    _ZN6RakNet13TeamSelectionC2ENS_12JoinTeamTypeEPNS_7TM_TeamE @2272
    _ZN6RakNet13TeamSelectionC2ENS_12JoinTeamTypeEh @2273
    _ZN6RakNet13TeamSelectionC2Ev @2274
    _ZN6RakNet13_DLMallocMMapEj @2275
    _ZN6RakNet13_RakMalloc_ExEjPKcj @2276
    _ZN6RakNet14CloudAllocator15AllocateRowDataEj @2277
    _ZN6RakNet14CloudAllocator17DeallocateRowDataEPv @2278
    _ZN6RakNet14CloudAllocator21AllocateCloudQueryRowEv @2279
    _ZN6RakNet14CloudAllocator23DeallocateCloudQueryRowEPNS_13CloudQueryRowE @2280
    _ZN6RakNet14CloudAllocatorC1Ev @2281
    _ZN6RakNet14CloudAllocatorC2Ev @2282
    _ZN6RakNet14CloudAllocatorD0Ev @2283
    _ZN6RakNet14CloudAllocatorD1Ev @2284
    _ZN6RakNet14CloudAllocatorD2Ev @2285
    _ZN6RakNet14Connection_RM313OnDereferenceEPNS_8Replica3EPNS_15ReplicaManager3E @2286
    _ZN6RakNet14Connection_RM313SendSerializeEPNS_8Replica3EPbPNS_9BitStreamEyPNS_3PROEPNS_16RakPeerInterfaceEhy @2287
    _ZN6RakNet14Connection_RM314SendValidationEPNS_16RakPeerInterfaceEh @2288
    _ZN6RakNet14Connection_RM315Replica3LSRCompERKPNS_8Replica3ERKPNS_23LastSerializationResultE @2289
    _ZN6RakNet14Connection_RM316OnLocalReferenceEPNS_8Replica3EPNS_15ReplicaManager3E @2290
    _ZN6RakNet14Connection_RM316OnNeverConstructEjPNS_15ReplicaManager3E @2291
    _ZN6RakNet14Connection_RM316OnNeverSerializeEPNS_23LastSerializationResultEPNS_15ReplicaManager3E @2292
    _ZN6RakNet14Connection_RM316QueryReplicaListERN14DataStructures4ListIPNS_8Replica3EEES6_ @2293
    _ZN6RakNet14Connection_RM316SendConstructionERN14DataStructures4ListIPNS_8Replica3EEES6_NS_3PROEPNS_16RakPeerInterfaceEhPNS_15ReplicaManager3E @2294
    _ZN6RakNet14Connection_RM318ClearDownloadGroupEPNS_16RakPeerInterfaceE @2295
    _ZN6RakNet14Connection_RM318OnDownloadExistingEPNS_8Replica3EPNS_15ReplicaManager3E @2296
    _ZN6RakNet14Connection_RM319SendSerializeHeaderEPNS_8Replica3EyPNS_9BitStreamEh @2297
    _ZN6RakNet14Connection_RM320AutoConstructByQueryEPNS_15ReplicaManager3Eh @2298
    _ZN6RakNet14Connection_RM321HasReplicaConstructedEPNS_8Replica3E @2299
    _ZN6RakNet14Connection_RM322GetConstructedReplicasERN14DataStructures4ListIPNS_8Replica3EEE @2300
    _ZN6RakNet14Connection_RM322OnReplicaAlreadyExistsEjPNS_15ReplicaManager3E @2301
    _ZN6RakNet14Connection_RM322QuerySerializationListERN14DataStructures4ListIPNS_8Replica3EEE @2302
    _ZN6RakNet14Connection_RM322SendSerializeIfChangedEPNS_23LastSerializationResultEPNS_19SerializeParametersEPNS_16RakPeerInterfaceEhPNS_15ReplicaManager3Ey @2303
    _ZN6RakNet14Connection_RM323OnDoNotQueryDestructionEjPNS_15ReplicaManager3E @2304
    _ZN6RakNet14Connection_RM324OnDownloadFromThisSystemEPNS_8Replica3EPNS_15ReplicaManager3E @2305
    _ZN6RakNet14Connection_RM325OnDownloadFromOtherSystemEPNS_8Replica3EPNS_15ReplicaManager3E @2306
    _ZN6RakNet14Connection_RM326OnSendDestructionFromQueryEjPNS_15ReplicaManager3E @2307
    _ZN6RakNet14Connection_RM326SerializeOnDownloadStartedEPNS_9BitStreamE @2308
    _ZN6RakNet14Connection_RM327OnConstructToThisConnectionEPNS_8Replica3EPNS_15ReplicaManager3E @2309
    _ZN6RakNet14Connection_RM327OnConstructToThisConnectionEjPNS_15ReplicaManager3E @2310
    _ZN6RakNet14Connection_RM327SerializeOnDownloadCompleteEPNS_9BitStreamE @2311
    _ZN6RakNet14Connection_RM328DeserializeOnDownloadStartedEPNS_9BitStreamE @2312
    _ZN6RakNet14Connection_RM329DeserializeOnDownloadCompleteEPNS_9BitStreamE @2313
    _ZN6RakNet14Connection_RM3C1ERKNS_13SystemAddressENS_10RakNetGUIDE @2314
    _ZN6RakNet14Connection_RM3C2ERKNS_13SystemAddressENS_10RakNetGUIDE @2315
    _ZN6RakNet14Connection_RM3D0Ev @2316
    _ZN6RakNet14Connection_RM3D1Ev @2317
    _ZN6RakNet14Connection_RM3D2Ev @2318
    _ZN6RakNet14DataCompressor11GetInstanceEv @2319
    _ZN6RakNet14DataCompressor15DestroyInstanceEPS0_ @2320
    _ZN6RakNet14DataCompressor21DecompressAndAllocateEPNS_9BitStreamEPPh @2321
    _ZN6RakNet14DataCompressor8CompressEPhjPNS_9BitStreamE @2322
    _ZN6RakNet14HTTPConnection11BadResponseC1EPKhi @2323
    _ZN6RakNet14HTTPConnection11BadResponseC1ERKS1_ @2324
    _ZN6RakNet14HTTPConnection11BadResponseC1Ev @2325
    _ZN6RakNet14HTTPConnection11BadResponseD1Ev @2326
    _ZN6RakNet14HTTPConnection11BadResponseaSERKS1_ @2327
    _ZN6RakNet14HTTPConnection11GetInstanceEv @2328
    _ZN6RakNet14HTTPConnection14HasBadResponseEPiPNS_9RakStringE @2329
    _ZN6RakNet14HTTPConnection15CloseConnectionEv @2330
    _ZN6RakNet14HTTPConnection15DestroyInstanceEPS0_ @2331
    _ZN6RakNet14HTTPConnection15OutgoingCommandC1ERKS1_ @2332
    _ZN6RakNet14HTTPConnection15OutgoingCommandC1Ev @2333
    _ZN6RakNet14HTTPConnection15OutgoingCommandD1Ev @2334
    _ZN6RakNet14HTTPConnection15OutgoingCommandaSEOS1_ @2335
    _ZN6RakNet14HTTPConnection15OutgoingCommandaSERKS1_ @2336
    _ZN6RakNet14HTTPConnection16ProcessTCPPacketEPNS_6PacketE @2337
    _ZN6RakNet14HTTPConnection3GetEPKc @2338
    _ZN6RakNet14HTTPConnection4InitEPNS_12TCPInterfaceEPKct @2339
    _ZN6RakNet14HTTPConnection4PostEPKcS2_S2_ @2340
    _ZN6RakNet14HTTPConnection4ReadEv @2341
    _ZN6RakNet14HTTPConnection6UpdateEv @2342
    _ZN6RakNet14HTTPConnectionC1Ev @2343
    _ZN6RakNet14HTTPConnectionC2Ev @2344
    _ZN6RakNet14HTTPConnectionD0Ev @2345
    _ZN6RakNet14HTTPConnectionD1Ev @2346
    _ZN6RakNet14HTTPConnectionD2Ev @2347
    _ZN6RakNet14InternalPacketC1Ev @2348
    _ZN6RakNet14InternalPacketaSERKS0_ @2349
    _ZN6RakNet14RNS2RecvStructC1Ev @2350
    _ZN6RakNet14StrAndBoolCompERKPcRK10StrAndBool @2351
    _ZN6RakNet14UDPProxyClient11GetInstanceEv @2352
    _ZN6RakNet14UDPProxyClient13OnPingServersEPNS_6PacketE @2353
    _ZN6RakNet14UDPProxyClient14ServerWithPingC1Ev @2354
    _ZN6RakNet14UDPProxyClient14ServerWithPingaSERKS1_ @2355
    _ZN6RakNet14UDPProxyClient15DestroyInstanceEPS0_ @2356
    _ZN6RakNet14UDPProxyClient15PingServerGroup30SendPingedServersToCoordinatorEPNS_16RakPeerInterfaceE @2357
    _ZN6RakNet14UDPProxyClient15PingServerGroupC1Ev @2358
    _ZN6RakNet14UDPProxyClient15PingServerGroupD1Ev @2359
    _ZN6RakNet14UDPProxyClient16SetResultHandlerEPNS_27UDPProxyClientResultHandlerE @2360
    _ZN6RakNet14UDPProxyClient17OnRakPeerShutdownEv @2361
    _ZN6RakNet14UDPProxyClient17RequestForwardingENS_13SystemAddressES1_NS_10RakNetGUIDEjPNS_9BitStreamE @2362
    _ZN6RakNet14UDPProxyClient17RequestForwardingENS_13SystemAddressES1_S1_jPNS_9BitStreamE @2363
    _ZN6RakNet14UDPProxyClient22SenderAndTargetAddressC1Ev @2364
    _ZN6RakNet14UDPProxyClient5ClearEv @2365
    _ZN6RakNet14UDPProxyClient6UpdateEv @2366
    _ZN6RakNet14UDPProxyClient9OnReceiveEPNS_6PacketE @2367
    _ZN6RakNet14UDPProxyClientC1Ev @2368
    _ZN6RakNet14UDPProxyClientC2Ev @2369
    _ZN6RakNet14UDPProxyClientD0Ev @2370
    _ZN6RakNet14UDPProxyClientD1Ev @2371
    _ZN6RakNet14UDPProxyClientD2Ev @2372
    _ZN6RakNet14UDPProxyServer11GetInstanceEv @2373
    _ZN6RakNet14UDPProxyServer15DestroyInstanceEPS0_ @2374
    _ZN6RakNet14UDPProxyServer15SetSocketFamilyEt @2375
    _ZN6RakNet14UDPProxyServer16OnRakPeerStartupEv @2376
    _ZN6RakNet14UDPProxyServer16SetResultHandlerEPNS_27UDPProxyServerResultHandlerE @2377
    _ZN6RakNet14UDPProxyServer17OnRakPeerShutdownEv @2378
    _ZN6RakNet14UDPProxyServer17SetServerPublicIPENS_9RakStringE @2379
    _ZN6RakNet14UDPProxyServer18LoginToCoordinatorENS_9RakStringENS_13SystemAddressE @2380
    _ZN6RakNet14UDPProxyServer18OnClosedConnectionERKNS_13SystemAddressENS_10RakNetGUIDENS_24PI2_LostConnectionReasonE @2381
    _ZN6RakNet14UDPProxyServer42OnForwardingRequestFromCoordinatorToServerEPNS_6PacketE @2382
    _ZN6RakNet14UDPProxyServer6UpdateEv @2383
    _ZN6RakNet14UDPProxyServer8OnAttachEv @2384
    _ZN6RakNet14UDPProxyServer8OnDetachEv @2385
    _ZN6RakNet14UDPProxyServer9OnReceiveEPNS_6PacketE @2386
    _ZN6RakNet14UDPProxyServerC1Ev @2387
    _ZN6RakNet14UDPProxyServerC2Ev @2388
    _ZN6RakNet14UDPProxyServerD0Ev @2389
    _ZN6RakNet14UDPProxyServerD1Ev @2390
    _ZN6RakNet14UDPProxyServerD2Ev @2391
    _ZN6RakNet14_RakRealloc_ExEPvjPKcj @2392
    _ZN6RakNet15HTTPConnection211GetInstanceEv @2393
    _ZN6RakNet15HTTPConnection211GetResponseERNS_9RakStringES2_S2_RNS_13SystemAddressERi @2394
    _ZN6RakNet15HTTPConnection211GetResponseERNS_9RakStringES2_S2_RNS_13SystemAddressERiPPv @2395
    _ZN6RakNet15HTTPConnection211IsConnectedENS_13SystemAddressE @2396
    _ZN6RakNet15HTTPConnection211SendRequestEPNS0_7RequestE @2397
    _ZN6RakNet15HTTPConnection215DestroyInstanceEPS0_ @2398
    _ZN6RakNet15HTTPConnection215OnNewConnectionERKNS_13SystemAddressENS_10RakNetGUIDEb @2399
    _ZN6RakNet15HTTPConnection215TransmitRequestEPKcS2_tbiNS_13SystemAddressEPv @2400
    _ZN6RakNet15HTTPConnection218OnClosedConnectionERKNS_13SystemAddressENS_10RakNetGUIDENS_24PI2_LostConnectionReasonE @2401
    _ZN6RakNet15HTTPConnection220RemovePendingRequestENS_13SystemAddressE @2402
    _ZN6RakNet15HTTPConnection222SendNextPendingRequestEv @2403
    _ZN6RakNet15HTTPConnection225OnFailedConnectionAttemptEPNS_6PacketENS_33PI2_FailedConnectionAttemptReasonE @2404
    _ZN6RakNet15HTTPConnection235SendPendingRequestToConnectedSystemENS_13SystemAddressE @2405
    _ZN6RakNet15HTTPConnection27RequestC1Ev @2406
    _ZN6RakNet15HTTPConnection27RequestD1Ev @2407
    _ZN6RakNet15HTTPConnection29OnReceiveEPNS_6PacketE @2408
    _ZN6RakNet15HTTPConnection2C1Ev @2409
    _ZN6RakNet15HTTPConnection2C2Ev @2410
    _ZN6RakNet15HTTPConnection2D0Ev @2411
    _ZN6RakNet15HTTPConnection2D1Ev @2412
    _ZN6RakNet15HTTPConnection2D2Ev @2413
    _ZN6RakNet15NetworkIDObject12GetNetworkIDEv @2414
    _ZN6RakNet15NetworkIDObject12SetNetworkIDEy @2415
    _ZN6RakNet15NetworkIDObject19SetNetworkIDManagerEPNS_16NetworkIDManagerE @2416
    _ZN6RakNet15NetworkIDObject9SetParentEPv @2417
    _ZN6RakNet15NetworkIDObjectC1Ev @2418
    _ZN6RakNet15NetworkIDObjectC2Ev @2419
    _ZN6RakNet15NetworkIDObjectD0Ev @2420
    _ZN6RakNet15NetworkIDObjectD1Ev @2421
    _ZN6RakNet15NetworkIDObjectD2Ev @2422
    _ZN6RakNet15OP_DELETE_ARRAYI10StrAndBoolEEvPT_PKcj @2423
    _ZN6RakNet15OP_DELETE_ARRAYIN14DataStructures3MapINS_13SystemAddressEPNS1_9ByteQueueEXadL_ZNS1_23defaultMapKeyComparisonIS3_EEiRKT_S9_EEE7MapNodeEEEvPS7_PKcj @2424
    _ZN6RakNet15OP_DELETE_ARRAYIN14DataStructures3MapIiPNS_19HuffmanEncodingTreeEXadL_ZNS1_23defaultMapKeyComparisonIiEEiRKT_S8_EEE7MapNodeEEEvPS6_PKcj @2425
    _ZN6RakNet15OP_DELETE_ARRAYIN14DataStructures3MapIjNS_15FLR_MemoryBlockEXadL_ZNS1_23defaultMapKeyComparisonIjEEiRKT_S7_EEE7MapNodeEEEvPS5_PKcj @2426
    _ZN6RakNet15OP_DELETE_ARRAYIN14DataStructures3MapItPNS_16FileListReceiverEXadL_ZNS1_23defaultMapKeyComparisonItEEiRKT_S8_EEE7MapNodeEEEvPS6_PKcj @2427
    _ZN6RakNet15OP_DELETE_ARRAYIN14DataStructures4HeapIyPNS_14InternalPacketELb0EE8HeapNodeEEEvPT_PKcj @2428
    _ZN6RakNet15OP_DELETE_ARRAYIN14DataStructures4ListIPvEEEEvPT_PKcj @2429
    _ZN6RakNet15OP_DELETE_ARRAYIN14DataStructures5Table11FilterQueryEEEvPT_PKcj @2430
    _ZN6RakNet15OP_DELETE_ARRAYIN14DataStructures5Table16ColumnDescriptorEEEvPT_PKcj @2431
    _ZN6RakNet15OP_DELETE_ARRAYIN14DataStructures9RangeNodeINS_8uint24_tEEEEEvPT_PKcj @2432
    _ZN6RakNet15OP_DELETE_ARRAYIN17VariadicSQLParser12IndexAndTypeEEEvPT_PKcj @2433
    _ZN6RakNet15OP_DELETE_ARRAYINS_10BPSTracker13TimeAndValue2EEEvPT_PKcj @2434
    _ZN6RakNet15OP_DELETE_ARRAYINS_10RakNetGUIDEEEvPT_PKcj @2435
    _ZN6RakNet15OP_DELETE_ARRAYINS_10ReadyEvent12RemoteSystemEEEvPT_PKcj @2436
    _ZN6RakNet15OP_DELETE_ARRAYINS_11RelayPlugin10StrAndGuidEEEvPT_PKcj @2437
    _ZN6RakNet15OP_DELETE_ARRAYINS_12FileListNodeEEEvPT_PKcj @2438
    _ZN6RakNet15OP_DELETE_ARRAYINS_12RemoteClientEEEvPT_PKcj @2439
    _ZN6RakNet15OP_DELETE_ARRAYINS_12TeamBalancer10TeamMemberEEEvPT_PKcj @2440
    _ZN6RakNet15OP_DELETE_ARRAYINS_12TeamBalancer13MyTeamMembersEEEvPT_PKcj @2441
    _ZN6RakNet15OP_DELETE_ARRAYINS_12UDPForwarder27StartForwardingOutputStructEEEvPT_PKcj @2442
    _ZN6RakNet15OP_DELETE_ARRAYINS_13AddressOrGUIDEEEvPT_PKcj @2443
    _ZN6RakNet15OP_DELETE_ARRAYINS_13SystemAddressEEEvPT_PKcj @2444
    _ZN6RakNet15OP_DELETE_ARRAYINS_13TM_TeamMember13RequestedTeamEEEvPT_PKcj @2445
    _ZN6RakNet15OP_DELETE_ARRAYINS_14FilteredSystemEEEvPT_PKcj @2446
    _ZN6RakNet15OP_DELETE_ARRAYINS_14HTTPConnection11BadResponseEEEvPT_PKcj @2447
    _ZN6RakNet15OP_DELETE_ARRAYINS_14HTTPConnection15OutgoingCommandEEEvPT_PKcj @2448
    _ZN6RakNet15OP_DELETE_ARRAYINS_14UDPProxyClient14ServerWithPingEEEvPT_PKcj @2449
    _ZN6RakNet15OP_DELETE_ARRAYINS_16ConnectionGraph220SystemAddressAndGuidEEEvPT_PKcj @2450
    _ZN6RakNet15OP_DELETE_ARRAYINS_16FileListTransfer10ThreadDataEEEvPT_PKcj @2451
    _ZN6RakNet15OP_DELETE_ARRAYINS_16LogCommandParser23SystemAddressAndChannelEEEvPT_PKcj @2452
    _ZN6RakNet15OP_DELETE_ARRAYINS_16RakNetStatisticsEEEvPT_PKcj @2453
    _ZN6RakNet15OP_DELETE_ARRAYINS_16ReliabilityLayer19DatagramHistoryNodeEEEvPT_PKcj @2454
    _ZN6RakNet15OP_DELETE_ARRAYINS_16ReliabilityLayer28UnreliableWithAckReceiptNodeEEEvPT_PKcj @2455
    _ZN6RakNet15OP_DELETE_ARRAYINS_17RegisteredCommandEEEvPT_PKcj @2456
    _ZN6RakNet15OP_DELETE_ARRAYINS_17StatisticsHistory12TimeAndValueEEEvPT_PKcj @2457
    _ZN6RakNet15OP_DELETE_ARRAYINS_19FullyConnectedMesh228VerifiedJoinInProgressMemberEEEvPT_PKcj @2458
    _ZN6RakNet15OP_DELETE_ARRAYINS_19UDPProxyCoordinator14ServerWithPingEEEvPT_PKcj @2459
    _ZN6RakNet15OP_DELETE_ARRAYINS_20TwoWayAuthentication16PendingChallengeEEEvPT_PKcj @2460
    _ZN6RakNet15OP_DELETE_ARRAYINS_21NatPunchthroughClient11AddrAndGuidEEEvPT_PKcj @2461
    _ZN6RakNet15OP_DELETE_ARRAYINS_21NatPunchthroughClient9DSTAndFacEEEvPT_PKcj @2462
    _ZN6RakNet15OP_DELETE_ARRAYINS_22NatTypeDetectionServer19NATDetectionAttemptEEEvPT_PKcj @2463
    _ZN6RakNet15OP_DELETE_ARRAYINS_24VariableListDeltaTracker21VariableLastValueNodeEEEvPT_PKcj @2464
    _ZN6RakNet15OP_DELETE_ARRAYINS_4RPC415LocalSlotObjectEEEvPT_PKcj @2465
    _ZN6RakNet15OP_DELETE_ARRAYINS_7RakPeer18RemoteSystemStructEEEvPT_PKcj @2466
    _ZN6RakNet15OP_DELETE_ARRAYINS_7Router216MiniPunchRequestEEEvPT_PKcj @2467
    _ZN6RakNet15OP_DELETE_ARRAYINS_7Router219ForwardedConnectionEEEvPT_PKcj @2468
    _ZN6RakNet15OP_DELETE_ARRAYINS_7Router223ConnectionRequestSystemEEEvPT_PKcj @2469
    _ZN6RakNet15OP_DELETE_ARRAYINS_8CloudKeyEEEvPT_PKcj @2470
    _ZN6RakNet15OP_DELETE_ARRAYINS_8TM_World17JoinRequestHelperEEEvPT_PKcj @2471
    _ZN6RakNet15OP_DELETE_ARRAYINS_9Rackspace18RackspaceOperationEEEvPT_PKcj @2472
    _ZN6RakNet15OP_DELETE_ARRAYINS_9RakStringEEEvPT_PKcj @2473
    _ZN6RakNet15OP_DELETE_ARRAYIP23HuffmanEncodingTreeNodeEEvPT_PKcj @2474
    _ZN6RakNet15OP_DELETE_ARRAYIPFiNS_16FileListTransfer10ThreadDataEPbPvEEEvPT_PKcj @2475
    _ZN6RakNet15OP_DELETE_ARRAYIPN14DataStructures4HashINS_10RakNetGUIDEPNS_11CloudServer17RemoteCloudClientELj2048EXadL_ZNS3_8ToUint32ERKS3_EEE4NodeEEEvPT_PKcj @2476
    _ZN6RakNet15OP_DELETE_ARRAYIPN14DataStructures4HashINS_10RakNetGUIDEPNS_11RelayPlugin17StrAndGuidAndRoomELj8096EXadL_ZNS3_8ToUint32ERKS3_EEE4NodeEEEvPT_PKcj @2477
    _ZN6RakNet15OP_DELETE_ARRAYIPN14DataStructures4HashINS_13AddressOrGUIDENS_14FilteredSystemELj2048EXadL_ZNS3_9ToIntegerERKS3_EEE4NodeEEEvPT_PKcj @2478
    _ZN6RakNet15OP_DELETE_ARRAYIPN14DataStructures4HashINS_9RakStringEPFvPNS_9BitStreamEPNS_6PacketEELj64EXadL_ZNS3_9ToIntegerERKS3_EEE4NodeEEEvPT_PKcj @2479
    _ZN6RakNet15OP_DELETE_ARRAYIPN14DataStructures4HashINS_9RakStringEPFvPNS_9BitStreamES5_PNS_6PacketEELj64EXadL_ZNS3_9ToIntegerERKS3_EEE4NodeEEEvPT_PKcj @2480
    _ZN6RakNet15OP_DELETE_ARRAYIPN14DataStructures4HashINS_9RakStringEPNS_11RelayPlugin17StrAndGuidAndRoomELj8096EXadL_ZNS3_9ToIntegerERKS3_EEE4NodeEEEvPT_PKcj @2481
    _ZN6RakNet15OP_DELETE_ARRAYIPN14DataStructures4HashINS_9RakStringEPNS_17StatisticsHistory17TimeAndValueQueueELj32EXadL_ZNS3_9ToIntegerERKS3_EEE4NodeEEEvPT_PKcj @2482
    _ZN6RakNet15OP_DELETE_ARRAYIPN14DataStructures4HashINS_9RakStringEPNS_4RPC49LocalSlotELj256EXadL_ZNS3_9ToIntegerERKS3_EEE4NodeEEEvPT_PKcj @2483
    _ZN6RakNet15OP_DELETE_ARRAYIPN14DataStructures4HashINS_9RakStringES3_Lj16EXadL_ZNS3_9ToIntegerERKS3_EEE4NodeEEEvPT_PKcj @2484
    _ZN6RakNet15OP_DELETE_ARRAYIPN14DataStructures4HashIyPNS_13TM_TeamMemberELj256EXadL_ZNS3_8ToUint32ERKyEEE4NodeEEEvPT_PKcj @2485
    _ZN6RakNet15OP_DELETE_ARRAYIPN14DataStructures4HashIyPNS_7TM_TeamELj256EXadL_ZNS3_8ToUint32ERKyEEE4NodeEEEvPT_PKcj @2486
    _ZN6RakNet15OP_DELETE_ARRAYIPN14DataStructures4PageIjPNS1_5Table3RowELi16EEEEEvPT_PKcj @2487
    _ZN6RakNet15OP_DELETE_ARRAYIPN14DataStructures5Table3RowEEEvPT_PKcj @2488
    _ZN6RakNet15OP_DELETE_ARRAYIPN14DataStructures5Table4CellEEEvPT_PKcj @2489
    _ZN6RakNet15OP_DELETE_ARRAYIPNS_10ReadyEvent14ReadyEventNodeEEEvPT_PKcj @2490
    _ZN6RakNet15OP_DELETE_ARRAYIPNS_11CloudServer10GetRequestEEEvPT_PKcj @2491
    _ZN6RakNet15OP_DELETE_ARRAYIPNS_11CloudServer12RemoteServerEEEvPT_PKcj @2492
    _ZN6RakNet15OP_DELETE_ARRAYIPNS_11CloudServer13CloudDataListEEEvPT_PKcj @2493
    _ZN6RakNet15OP_DELETE_ARRAYIPNS_11CloudServer15KeySubscriberIDEEEvPT_PKcj @2494
    _ZN6RakNet15OP_DELETE_ARRAYIPNS_11CloudServer17RemoteCloudClientEEEvPT_PKcj @2495
    _ZN6RakNet15OP_DELETE_ARRAYIPNS_11CloudServer29BufferedGetResponseFromServerEEEvPT_PKcj @2496
    _ZN6RakNet15OP_DELETE_ARRAYIPNS_11CloudServer9CloudDataEEEvPT_PKcj @2497
    _ZN6RakNet15OP_DELETE_ARRAYIPNS_11RelayPlugin17StrAndGuidAndRoomEEEvPT_PKcj @2498
    _ZN6RakNet15OP_DELETE_ARRAYIPNS_11RelayPlugin8RP_GroupEEEvPT_PKcj @2499
    _ZN6RakNet15OP_DELETE_ARRAYIPNS_12UDPForwarder12ForwardEntryEEEvPT_PKcj @2500
    _ZN6RakNet15OP_DELETE_ARRAYIPNS_12UDPForwarder20StopForwardingStructEEEvPT_PKcj @2501
    _ZN6RakNet15OP_DELETE_ARRAYIPNS_12UDPForwarder26StartForwardingInputStructEEEvPT_PKcj @2502
    _ZN6RakNet15OP_DELETE_ARRAYIPNS_13CloudQueryRowEEEvPT_PKcj @2503
    _ZN6RakNet15OP_DELETE_ARRAYIPNS_13RakNetSocket2EEEvPT_PKcj @2504
    _ZN6RakNet15OP_DELETE_ARRAYIPNS_13SystemAddressEEEvPT_PKcj @2505
    _ZN6RakNet15OP_DELETE_ARRAYIPNS_13TM_TeamMemberEEEvPT_PKcj @2506
    _ZN6RakNet15OP_DELETE_ARRAYIPNS_14Connection_RM3EEEvPT_PKcj @2507
    _ZN6RakNet15OP_DELETE_ARRAYIPNS_14InternalPacketEEEvPT_PKcj @2508
    _ZN6RakNet15OP_DELETE_ARRAYIPNS_14RNS2RecvStructEEEvPT_PKcj @2509
    _ZN6RakNet15OP_DELETE_ARRAYIPNS_14UDPProxyClient15PingServerGroupEEEvPT_PKcj @2510
    _ZN6RakNet15OP_DELETE_ARRAYIPNS_15HTTPConnection27RequestEEEvPT_PKcj @2511
    _ZN6RakNet15OP_DELETE_ARRAYIPNS_15ReplicaManager38RM3WorldEEEvPT_PKcj @2512
    _ZN6RakNet15OP_DELETE_ARRAYIPNS_15TelnetTransport12TelnetClientEEEvPT_PKcj @2513
    _ZN6RakNet15OP_DELETE_ARRAYIPNS_16ConnectionGraph212RemoteSystemEEEvPT_PKcj @2514
    _ZN6RakNet15OP_DELETE_ARRAYIPNS_16FileListProgressEEEvPT_PKcj @2515
    _ZN6RakNet15OP_DELETE_ARRAYIPNS_16FileListTransfer10FileToPushEEEvPT_PKcj @2516
    _ZN6RakNet15OP_DELETE_ARRAYIPNS_16FileListTransfer19FileToPushRecipientEEEvPT_PKcj @2517
    _ZN6RakNet15OP_DELETE_ARRAYIPNS_16PluginInterface2EEEvPT_PKcj @2518
    _ZN6RakNet15OP_DELETE_ARRAYIPNS_17RemoteSystemIndexEEEvPT_PKcj @2519
    _ZN6RakNet15OP_DELETE_ARRAYIPNS_17StatisticsHistory13TrackedObjectEEEvPT_PKcj @2520
    _ZN6RakNet15OP_DELETE_ARRAYIPNS_17StatisticsHistory17TimeAndValueQueueEEEvPT_PKcj @2521
    _ZN6RakNet15OP_DELETE_ARRAYIPNS_18SplitPacketChannelEEEvPT_PKcj @2522
    _ZN6RakNet15OP_DELETE_ARRAYIPNS_19FullyConnectedMesh215FCM2ParticipantEEEvPT_PKcj @2523
    _ZN6RakNet15OP_DELETE_ARRAYIPNS_19FullyConnectedMesh222VerifiedJoinInProgressEEEvPT_PKcj @2524
    _ZN6RakNet15OP_DELETE_ARRAYIPNS_19UDPProxyCoordinator17ForwardingRequestEEEvPT_PKcj @2525
    _ZN6RakNet15OP_DELETE_ARRAYIPNS_20TwoWayAuthentication27NonceAndRemoteSystemRequestEEEvPT_PKcj @2526
    _ZN6RakNet15OP_DELETE_ARRAYIPNS_21NatPunchthroughServer17ConnectionAttemptEEEvPT_PKcj @2527
    _ZN6RakNet15OP_DELETE_ARRAYIPNS_21NatPunchthroughServer4UserEEEvPT_PKcj @2528
    _ZN6RakNet15OP_DELETE_ARRAYIPNS_22CloudServerQueryFilterEEEvPT_PKcj @2529
    _ZN6RakNet15OP_DELETE_ARRAYIPNS_22CommandParserInterfaceEEEvPT_PKcj @2530
    _ZN6RakNet15OP_DELETE_ARRAYIPNS_23LastSerializationResultEEEvPT_PKcj @2531
    _ZN6RakNet15OP_DELETE_ARRAYIPNS_23Rackspace2EventCallbackEEEvPT_PKcj @2532
    _ZN6RakNet15OP_DELETE_ARRAYIPNS_23VariableDeltaSerializer20ChangedVariablesListEEEvPT_PKcj @2533
    _ZN6RakNet15OP_DELETE_ARRAYIPNS_23VariableDeltaSerializer27RemoteSystemVariableHistoryEEEvPT_PKcj @2534
    _ZN6RakNet15OP_DELETE_ARRAYIPNS_4RPC413LocalCallbackEEEvPT_PKcj @2535
    _ZN6RakNet15OP_DELETE_ARRAYIPNS_4RPC49LocalSlotEEEvPT_PKcj @2536
    _ZN6RakNet15OP_DELETE_ARRAYIPNS_6PacketEEEvPT_PKcj @2537
    _ZN6RakNet15OP_DELETE_ARRAYIPNS_7RakPeer17SocketQueryOutputEEEvPT_PKcj @2538
    _ZN6RakNet15OP_DELETE_ARRAYIPNS_7RakPeer18RemoteSystemStructEEEvPT_PKcj @2539
    _ZN6RakNet15OP_DELETE_ARRAYIPNS_7RakPeer21BufferedCommandStructEEEvPT_PKcj @2540
    _ZN6RakNet15OP_DELETE_ARRAYIPNS_7RakPeer25RequestedConnectionStructEEEvPT_PKcj @2541
    _ZN6RakNet15OP_DELETE_ARRAYIPNS_7RakPeer9BanStructEEEvPT_PKcj @2542
    _ZN6RakNet15OP_DELETE_ARRAYIPNS_7Router215ConnnectRequestEEEvPT_PKcj @2543
    _ZN6RakNet15OP_DELETE_ARRAYIPNS_7TM_TeamEEEvPT_PKcj @2544
    _ZN6RakNet15OP_DELETE_ARRAYIPNS_8Replica3EEEvPT_PKcj @2545
    _ZN6RakNet15OP_DELETE_ARRAYIPNS_8TM_WorldEEEvPT_PKcj @2546
    _ZN6RakNet15OP_DELETE_ARRAYIPNS_9BitStreamEEEvPT_PKcj @2547
    _ZN6RakNet15OP_DELETE_ARRAYIPNS_9FilterSetEEEvPT_PKcj @2548
    _ZN6RakNet15OP_DELETE_ARRAYIPNS_9RakString12SharedStringEEEvPT_PKcj @2549
    _ZN6RakNet15OP_DELETE_ARRAYIPPNS_12RemoteClientEEEvPT_PKcj @2550
    _ZN6RakNet15OP_DELETE_ARRAYIPcEEvPT_PKcj @2551
    _ZN6RakNet15OP_DELETE_ARRAYIPvEEvPT_PKcj @2552
    _ZN6RakNet15OP_DELETE_ARRAYIbEEvPT_PKcj @2553
    _ZN6RakNet15OP_DELETE_ARRAYIhEEvPT_PKcj @2554
    _ZN6RakNet15OP_DELETE_ARRAYIiEEvPT_PKcj @2555
    _ZN6RakNet15OP_DELETE_ARRAYIjEEvPT_PKcj @2556
    _ZN6RakNet15OP_DELETE_ARRAYItEEvPT_PKcj @2557
    _ZN6RakNet15OP_DELETE_ARRAYIwEEvPT_PKcj @2558
    _ZN6RakNet15OP_DELETE_ARRAYIyEEvPT_PKcj @2559
    _ZN6RakNet15ReplicaManager311DereferenceEPNS_8Replica3Eh @2560
    _ZN6RakNet15ReplicaManager311OnSerializeEPNS_6PacketEPhiNS_10RakNetGUIDEyhh @2561
    _ZN6RakNet15ReplicaManager311RemoveWorldEh @2562
    _ZN6RakNet15ReplicaManager313PopConnectionENS_10RakNetGUIDEh @2563
    _ZN6RakNet15ReplicaManager313PopConnectionEjh @2564
    _ZN6RakNet15ReplicaManager314OnConstructionEPNS_6PacketEPhiNS_10RakNetGUIDEhh @2565
    _ZN6RakNet15ReplicaManager314PushConnectionEPNS_14Connection_RM3Eh @2566
    _ZN6RakNet15ReplicaManager315DereferenceListERN14DataStructures4ListIPNS_8Replica3EEEh @2567
    _ZN6RakNet15ReplicaManager315OnNewConnectionERKNS_13SystemAddressENS_10RakNetGUIDEb @2568
    _ZN6RakNet15ReplicaManager317GetReplicaAtIndexEjh @2569
    _ZN6RakNet15ReplicaManager317OnDownloadStartedEPNS_6PacketEPhiNS_10RakNetGUIDEhh @2570
    _ZN6RakNet15ReplicaManager317OnRakPeerShutdownEv @2571
    _ZN6RakNet15ReplicaManager317ReferenceInternalEPNS_8Replica3Eh @2572
    _ZN6RakNet15ReplicaManager318OnClosedConnectionERKNS_13SystemAddressENS_10RakNetGUIDENS_24PI2_LostConnectionReasonE @2573
    _ZN6RakNet15ReplicaManager318OnDownloadCompleteEPNS_6PacketEPhiNS_10RakNetGUIDEhh @2574
    _ZN6RakNet15ReplicaManager319SetNetworkIDManagerEPNS_16NetworkIDManagerEh @2575
    _ZN6RakNet15ReplicaManager320BroadcastDestructionEPNS_8Replica3ERKNS_13SystemAddressE @2576
    _ZN6RakNet15ReplicaManager321GetReplicaByNetworkIDEyh @2577
    _ZN6RakNet15ReplicaManager322GetReplicasCreatedByMeERN14DataStructures4ListIPNS_8Replica3EEEh @2578
    _ZN6RakNet15ReplicaManager324AutoCreateConnectionListERN14DataStructures4ListINS_10RakNetGUIDEEERNS2_IPNS_14Connection_RM3EEEh @2579
    _ZN6RakNet15ReplicaManager324BroadcastDestructionListERN14DataStructures4ListIPNS_8Replica3EEERKNS_13SystemAddressEh @2580
    _ZN6RakNet15ReplicaManager324GetReferencedReplicaListERN14DataStructures4ListIPNS_8Replica3EEEh @2581
    _ZN6RakNet15ReplicaManager324GetReplicasCreatedByGuidENS_10RakNetGUIDERN14DataStructures4ListIPNS_8Replica3EEEh @2582
    _ZN6RakNet15ReplicaManager324SetAutoManageConnectionsEbb @2583
    _ZN6RakNet15ReplicaManager324SetAutoSerializeIntervalEy @2584
    _ZN6RakNet15ReplicaManager324SetDefaultPacketPriorityE14PacketPriority @2585
    _ZN6RakNet15ReplicaManager325SetDefaultOrderingChannelEc @2586
    _ZN6RakNet15ReplicaManager327SetDefaultPacketReliabilityE17PacketReliability @2587
    _ZN6RakNet15ReplicaManager336DeallocReplicaNoBroadcastDestructionEPNS_14Connection_RM3EPNS_8Replica3E @2588
    _ZN6RakNet15ReplicaManager340GetConnectionsThatHaveReplicaConstructedEPNS_8Replica3ERN14DataStructures4ListIPNS_14Connection_RM3EEEh @2589
    _ZN6RakNet15ReplicaManager35ClearEb @2590
    _ZN6RakNet15ReplicaManager36UpdateEv @2591
    _ZN6RakNet15ReplicaManager38AddWorldEh @2592
    _ZN6RakNet15ReplicaManager38OnDetachEv @2593
    _ZN6RakNet15ReplicaManager38RM3World5ClearEPS0_ @2594
    _ZN6RakNet15ReplicaManager38RM3WorldC1Ev @2595
    _ZN6RakNet15ReplicaManager38RM3WorldC2Ev @2596
    _ZN6RakNet15ReplicaManager38RM3WorldD1Ev @2597
    _ZN6RakNet15ReplicaManager39OnReceiveEPNS_6PacketE @2598
    _ZN6RakNet15ReplicaManager39ReferenceEPNS_8Replica3Eh @2599
    _ZN6RakNet15ReplicaManager3C1Ev @2600
    _ZN6RakNet15ReplicaManager3C2Ev @2601
    _ZN6RakNet15ReplicaManager3D0Ev @2602
    _ZN6RakNet15ReplicaManager3D1Ev @2603
    _ZN6RakNet15ReplicaManager3D2Ev @2604
    _ZN6RakNet15TableSerializer12SerializeRowEPN14DataStructures5Table3RowEjRKNS1_4ListINS2_16ColumnDescriptorEEEPNS_9BitStreamE @2605
    _ZN6RakNet15TableSerializer12SerializeRowEPN14DataStructures5Table3RowEjRKNS1_4ListINS2_16ColumnDescriptorEEEPNS_9BitStreamERNS5_IiEE @2606
    _ZN6RakNet15TableSerializer13SerializeCellEPNS_9BitStreamEPN14DataStructures5Table4CellENS4_10ColumnTypeE @2607
    _ZN6RakNet15TableSerializer14DeserializeRowEPNS_9BitStreamEPN14DataStructures5TableE @2608
    _ZN6RakNet15TableSerializer14SerializeTableEPN14DataStructures5TableEPNS_9BitStreamE @2609
    _ZN6RakNet15TableSerializer15DeserializeCellEPNS_9BitStreamEPN14DataStructures5Table4CellENS4_10ColumnTypeE @2610
    _ZN6RakNet15TableSerializer16DeserializeTableEPNS_9BitStreamEPN14DataStructures5TableE @2611
    _ZN6RakNet15TableSerializer16DeserializeTableEPhjPN14DataStructures5TableE @2612
    _ZN6RakNet15TableSerializer16SerializeColumnsEPN14DataStructures5TableEPNS_9BitStreamE @2613
    _ZN6RakNet15TableSerializer16SerializeColumnsEPN14DataStructures5TableEPNS_9BitStreamERNS1_4ListIiEE @2614
    _ZN6RakNet15TableSerializer18DeserializeColumnsEPNS_9BitStreamEPN14DataStructures5TableE @2615
    _ZN6RakNet15TableSerializer19DeallocateQueryListEPN14DataStructures5Table11FilterQueryEj @2616
    _ZN6RakNet15TableSerializer20SerializeFilterQueryEPNS_9BitStreamEPN14DataStructures5Table11FilterQueryE @2617
    _ZN6RakNet15TableSerializer22DeserializeFilterQueryEPNS_9BitStreamEPN14DataStructures5Table11FilterQueryE @2618
    _ZN6RakNet15TableSerializer24SerializeFilterQueryListEPNS_9BitStreamEPN14DataStructures5Table11FilterQueryEjj @2619
    _ZN6RakNet15TableSerializer26DeserializeFilterQueryListEPNS_9BitStreamEPPN14DataStructures5Table11FilterQueryEPjji @2620
    _ZN6RakNet15TelnetTransport11GetInstanceEv @2621
    _ZN6RakNet15TelnetTransport12AutoAllocateEv @2622
    _ZN6RakNet15TelnetTransport12TelnetClientC1Ev @2623
    _ZN6RakNet15TelnetTransport13SetSendPrefixEPKc @2624
    _ZN6RakNet15TelnetTransport13SetSendSuffixEPKc @2625
    _ZN6RakNet15TelnetTransport14ReassembleLineEPNS0_12TelnetClientEh @2626
    _ZN6RakNet15TelnetTransport15CloseConnectionENS_13SystemAddressE @2627
    _ZN6RakNet15TelnetTransport15DestroyInstanceEPS0_ @2628
    _ZN6RakNet15TelnetTransport16DeallocatePacketEPNS_6PacketE @2629
    _ZN6RakNet15TelnetTransport16GetCommandParserEv @2630
    _ZN6RakNet15TelnetTransport17HasLostConnectionEv @2631
    _ZN6RakNet15TelnetTransport24HasNewIncomingConnectionEv @2632
    _ZN6RakNet15TelnetTransport4SendENS_13SystemAddressEPKcz @2633
    _ZN6RakNet15TelnetTransport4StopEv @2634
    _ZN6RakNet15TelnetTransport5StartEtb @2635
    _ZN6RakNet15TelnetTransport7ReceiveEv @2636
    _ZN6RakNet15TelnetTransportC1Ev @2637
    _ZN6RakNet15TelnetTransportC2Ev @2638
    _ZN6RakNet15TelnetTransportD0Ev @2639
    _ZN6RakNet15TelnetTransportD1Ev @2640
    _ZN6RakNet15TelnetTransportD2Ev @2641
    _ZN6RakNet15_DLMallocMUnmapEPvj @2642
    _ZN6RakNet16CloudQueryResult15SerializeHeaderEbPNS_9BitStreamE @2643
    _ZN6RakNet16CloudQueryResult16SerializeNumRowsEbRjPNS_9BitStreamE @2644
    _ZN6RakNet16CloudQueryResult23SerializeCloudQueryRowsEbRjPNS_9BitStreamEPNS_14CloudAllocatorE @2645
    _ZN6RakNet16CloudQueryResult9SerializeEbPNS_9BitStreamEPNS_14CloudAllocatorE @2646
    _ZN6RakNet16CloudQueryResultC1Ev @2647
    _ZN6RakNet16CloudQueryResultD1Ev @2648
    _ZN6RakNet16ConnectionGraph211GetInstanceEv @2649
    _ZN6RakNet16ConnectionGraph212RemoteSystemC1Ev @2650
    _ZN6RakNet16ConnectionGraph212RemoteSystemD1Ev @2651
    _ZN6RakNet16ConnectionGraph214AddParticipantERKNS_13SystemAddressENS_10RakNetGUIDE @2652
    _ZN6RakNet16ConnectionGraph215DestroyInstanceEPS0_ @2653
    _ZN6RakNet16ConnectionGraph215OnNewConnectionERKNS_13SystemAddressENS_10RakNetGUIDEb @2654
    _ZN6RakNet16ConnectionGraph216ConnectionExistsENS_10RakNetGUIDES1_ @2655
    _ZN6RakNet16ConnectionGraph216RemoteSystemCompERKNS_10RakNetGUIDERKPNS0_12RemoteSystemE @2656
    _ZN6RakNet16ConnectionGraph218GetParticipantListERN14DataStructures11OrderedListINS_10RakNetGUIDES3_XadL_ZNS1_28defaultOrderedListComparisonIS3_S3_EEiRKT_RKT0_EEEE @2657
    _ZN6RakNet16ConnectionGraph218OnClosedConnectionERKNS_13SystemAddressENS_10RakNetGUIDENS_24PI2_LostConnectionReasonE @2658
    _ZN6RakNet16ConnectionGraph220SystemAddressAndGuidC1Ev @2659
    _ZN6RakNet16ConnectionGraph220SystemAddressAndGuidaSERKS1_ @2660
    _ZN6RakNet16ConnectionGraph224SystemAddressAndGuidCompERKNS0_20SystemAddressAndGuidES3_ @2661
    _ZN6RakNet16ConnectionGraph228SetAutoProcessNewConnectionsEb @2662
    _ZN6RakNet16ConnectionGraph232GetConnectionListForRemoteSystemENS_10RakNetGUIDEPNS_13SystemAddressEPS1_Pj @2663
    _ZN6RakNet16ConnectionGraph29OnReceiveEPNS_6PacketE @2664
    _ZN6RakNet16ConnectionGraph2C1Ev @2665
    _ZN6RakNet16ConnectionGraph2C2Ev @2666
    _ZN6RakNet16ConnectionGraph2D0Ev @2667
    _ZN6RakNet16ConnectionGraph2D1Ev @2668
    _ZN6RakNet16ConnectionGraph2D2Ev @2669
    _ZN6RakNet16FileListProgress10OnFilePushEPKcjjjbNS_13SystemAddressEt @2670
    _ZN6RakNet16FileListProgress11GetInstanceEv @2671
    _ZN6RakNet16FileListProgress11OnDirectoryEPNS_8FileListEPcj @2672
    _ZN6RakNet16FileListProgress13OnSendAbortedENS_13SystemAddressE @2673
    _ZN6RakNet16FileListProgress15DestroyInstanceEPS0_ @2674
    _ZN6RakNet16FileListProgress20OnFilePushesCompleteENS_13SystemAddressEt @2675
    _ZN6RakNet16FileListProgress30OnAddFilesFromDirectoryStartedEPNS_8FileListEPc @2676
    _ZN6RakNet16FileListProgress6OnFileEPNS_8FileListEPcS3_j @2677
    _ZN6RakNet16FileListProgressC1Ev @2678
    _ZN6RakNet16FileListProgressC2Ev @2679
    _ZN6RakNet16FileListProgressD0Ev @2680
    _ZN6RakNet16FileListProgressD1Ev @2681
    _ZN6RakNet16FileListProgressD2Ev @2682
    _ZN6RakNet16FileListReceiverC1Ev @2683
    _ZN6RakNet16FileListReceiverC2Ev @2684
    _ZN6RakNet16FileListReceiverD1Ev @2685
    _ZN6RakNet16FileListReceiverD2Ev @2686
    _ZN6RakNet16FileListTransfer10DecodeFileEPNS_6PacketEb @2687
    _ZN6RakNet16FileListTransfer10FileToPushC1Ev @2688
    _ZN6RakNet16FileListTransfer10FileToPushD1Ev @2689
    _ZN6RakNet16FileListTransfer10ThreadDataC1Ev @2690
    _ZN6RakNet16FileListTransfer10ThreadDataaSEOS1_ @2691
    _ZN6RakNet16FileListTransfer10ThreadDataaSERKS1_ @2692
    _ZN6RakNet16FileListTransfer11AddCallbackEPNS_16FileListProgressE @2693
    _ZN6RakNet16FileListTransfer11GetInstanceEv @2694
    _ZN6RakNet16FileListTransfer12GetCallbacksERN14DataStructures4ListIPNS_16FileListProgressEEE @2695
    _ZN6RakNet16FileListTransfer12SetupReceiveEPNS_27FileListTransferCBInterfaceEbNS_13SystemAddressE @2696
    _ZN6RakNet16FileListTransfer13CancelReceiveEt @2697
    _ZN6RakNet16FileListTransfer14ClearCallbacksEv @2698
    _ZN6RakNet16FileListTransfer14RemoveCallbackEPNS_16FileListProgressE @2699
    _ZN6RakNet16FileListTransfer14RemoveFromListEPNS0_19FileToPushRecipientE @2700
    _ZN6RakNet16FileListTransfer14RemoveReceiverENS_13SystemAddressE @2701
    _ZN6RakNet16FileListTransfer15DecodeSetHeaderEPNS_6PacketE @2702
    _ZN6RakNet16FileListTransfer15DestroyInstanceEPS0_ @2703
    _ZN6RakNet16FileListTransfer15IsHandlerActiveEt @2704
    _ZN6RakNet16FileListTransfer15OnReferencePushEPNS_6PacketEb @2705
    _ZN6RakNet16FileListTransfer16SendIRIToAddressENS_13SystemAddressEt @2706
    _ZN6RakNet16FileListTransfer17OnRakPeerShutdownEv @2707
    _ZN6RakNet16FileListTransfer18OnClosedConnectionERKNS_13SystemAddressENS_10RakNetGUIDENS_24PI2_LostConnectionReasonE @2708
    _ZN6RakNet16FileListTransfer18OnReferencePushAckEPNS_6PacketE @2709
    _ZN6RakNet16FileListTransfer19FileToPushRecipient10DeleteThisEv @2710
    _ZN6RakNet16FileListTransfer19FileToPushRecipient5DerefEv @2711
    _ZN6RakNet16FileListTransfer19FileToPushRecipient6AddRefEv @2712
    _ZN6RakNet16FileListTransfer19FileToPushRecipientC1Ev @2713
    _ZN6RakNet16FileListTransfer19FileToPushRecipientD1Ev @2714
    _ZN6RakNet16FileListTransfer24GetPendingFilesToAddressENS_13SystemAddressE @2715
    _ZN6RakNet16FileListTransfer27StartIncrementalReadThreadsEii @2716
    _ZN6RakNet16FileListTransfer4SendEPNS_8FileListEPNS_16RakPeerInterfaceENS_13SystemAddressEt14PacketPrioritycPNS_24IncrementalReadInterfaceEj @2717
    _ZN6RakNet16FileListTransfer5ClearEv @2718
    _ZN6RakNet16FileListTransfer6UpdateEv @2719
    _ZN6RakNet16FileListTransfer9OnReceiveEPNS_6PacketE @2720
    _ZN6RakNet16FileListTransferC1Ev @2721
    _ZN6RakNet16FileListTransferC2Ev @2722
    _ZN6RakNet16FileListTransferD0Ev @2723
    _ZN6RakNet16FileListTransferD1Ev @2724
    _ZN6RakNet16FileListTransferD2Ev @2725
    _ZN6RakNet16LocklessUint32_t9DecrementEv @2726
    _ZN6RakNet16LocklessUint32_t9IncrementEv @2727
    _ZN6RakNet16LocklessUint32_tC1Ej @2728
    _ZN6RakNet16LocklessUint32_tC1Ev @2729
    _ZN6RakNet16LocklessUint32_tC2Ej @2730
    _ZN6RakNet16LocklessUint32_tC2Ev @2731
    _ZN6RakNet16LogCommandParser10AddChannelEPKc @2732
    _ZN6RakNet16LogCommandParser11GetInstanceEv @2733
    _ZN6RakNet16LogCommandParser11UnsubscribeERKNS_13SystemAddressEPKc @2734
    _ZN6RakNet16LogCommandParser15DestroyInstanceEPS0_ @2735
    _ZN6RakNet16LogCommandParser16OnConnectionLostERKNS_13SystemAddressEPNS_18TransportInterfaceE @2736
    _ZN6RakNet16LogCommandParser17OnTransportChangeEPNS_18TransportInterfaceE @2737
    _ZN6RakNet16LogCommandParser23GetChannelIndexFromNameEPKc @2738
    _ZN6RakNet16LogCommandParser23OnNewIncomingConnectionERKNS_13SystemAddressEPNS_18TransportInterfaceE @2739
    _ZN6RakNet16LogCommandParser23SystemAddressAndChannelC1Ev @2740
    _ZN6RakNet16LogCommandParser23SystemAddressAndChannelaSERKS1_ @2741
    _ZN6RakNet16LogCommandParser8SendHelpEPNS_18TransportInterfaceERKNS_13SystemAddressE @2742
    _ZN6RakNet16LogCommandParser8WriteLogEPKcS2_z @2743
    _ZN6RakNet16LogCommandParser9OnCommandEPKcjPPcPNS_18TransportInterfaceERKNS_13SystemAddressES2_ @2744
    _ZN6RakNet16LogCommandParser9SubscribeERKNS_13SystemAddressEPKc @2745
    _ZN6RakNet16LogCommandParserC1Ev @2746
    _ZN6RakNet16LogCommandParserC2Ev @2747
    _ZN6RakNet16LogCommandParserD0Ev @2748
    _ZN6RakNet16LogCommandParserD1Ev @2749
    _ZN6RakNet16LogCommandParserD2Ev @2750
    _ZN6RakNet16NetworkIDManager11GetInstanceEv @2751
    _ZN6RakNet16NetworkIDManager15DestroyInstanceEPS0_ @2752
    _ZN6RakNet16NetworkIDManager15GetNewNetworkIDEv @2753
    _ZN6RakNet16NetworkIDManager18GET_OBJECT_FROM_IDIPNS_8Replica3EEET_y @2754
    _ZN6RakNet16NetworkIDManager20NetworkIDToHashIndexEy @2755
    _ZN6RakNet16NetworkIDManager20TrackNetworkIDObjectEPNS_15NetworkIDObjectE @2756
    _ZN6RakNet16NetworkIDManager23GET_BASE_OBJECT_FROM_IDEy @2757
    _ZN6RakNet16NetworkIDManager27StopTrackingNetworkIDObjectEPNS_15NetworkIDObjectE @2758
    _ZN6RakNet16NetworkIDManager5ClearEv @2759
    _ZN6RakNet16NetworkIDManagerC1Ev @2760
    _ZN6RakNet16NetworkIDManagerC2Ev @2761
    _ZN6RakNet16NetworkIDManagerD0Ev @2762
    _ZN6RakNet16NetworkIDManagerD1Ev @2763
    _ZN6RakNet16NetworkIDManagerD2Ev @2764
    _ZN6RakNet16PacketFileLogger8StartLogEPKc @2765
    _ZN6RakNet16PacketFileLogger8WriteLogEPKc @2766
    _ZN6RakNet16PacketFileLoggerC1Ev @2767
    _ZN6RakNet16PacketFileLoggerC2Ev @2768
    _ZN6RakNet16PacketFileLoggerD0Ev @2769
    _ZN6RakNet16PacketFileLoggerD1Ev @2770
    _ZN6RakNet16PacketFileLoggerD2Ev @2771
    _ZN6RakNet16PluginInterface211SendUnifiedEPKNS_9BitStreamE14PacketPriority17PacketReliabilitycNS_13AddressOrGUIDEb @2772
    _ZN6RakNet16PluginInterface211SendUnifiedEPKci14PacketPriority17PacketReliabilitycNS_13AddressOrGUIDEb @2773
    _ZN6RakNet16PluginInterface215OnNewConnectionERKNS_13SystemAddressENS_10RakNetGUIDEb @2774
    _ZN6RakNet16PluginInterface215SendListUnifiedEPPKcPKii14PacketPriority17PacketReliabilitycNS_13AddressOrGUIDEb @2775
    _ZN6RakNet16PluginInterface215SetTCPInterfaceEPNS_12TCPInterfaceE @2776
    _ZN6RakNet16PluginInterface216OnInternalPacketEPNS_14InternalPacketEjNS_13SystemAddressEji @2777
    _ZN6RakNet16PluginInterface216OnPushBackPacketEPKcjNS_13SystemAddressE @2778
    _ZN6RakNet16PluginInterface216OnRakPeerStartupEv @2779
    _ZN6RakNet16PluginInterface217OnRakPeerShutdownEv @2780
    _ZN6RakNet16PluginInterface218OnClosedConnectionERKNS_13SystemAddressENS_10RakNetGUIDENS_24PI2_LostConnectionReasonE @2781
    _ZN6RakNet16PluginInterface218OnDirectSocketSendEPKcjNS_13SystemAddressE @2782
    _ZN6RakNet16PluginInterface219SetRakPeerInterfaceEPNS_16RakPeerInterfaceE @2783
    _ZN6RakNet16PluginInterface220DeallocPacketUnifiedEPNS_6PacketE @2784
    _ZN6RakNet16PluginInterface221AllocatePacketUnifiedEj @2785
    _ZN6RakNet16PluginInterface221OnDirectSocketReceiveEPKcjNS_13SystemAddressE @2786
    _ZN6RakNet16PluginInterface221PushBackPacketUnifiedEPNS_6PacketEb @2787
    _ZN6RakNet16PluginInterface225OnFailedConnectionAttemptEPNS_6PacketENS_33PI2_FailedConnectionAttemptReasonE @2788
    _ZN6RakNet16PluginInterface230OnReliabilityLayerNotificationEPKcjNS_13SystemAddressEb @2789
    _ZN6RakNet16PluginInterface25OnAckEjNS_13SystemAddressEj @2790
    _ZN6RakNet16PluginInterface26UpdateEv @2791
    _ZN6RakNet16PluginInterface28OnAttachEv @2792
    _ZN6RakNet16PluginInterface28OnDetachEv @2793
    _ZN6RakNet16PluginInterface29OnReceiveEPNS_6PacketE @2794
    _ZN6RakNet16PluginInterface2C1Ev @2795
    _ZN6RakNet16PluginInterface2C2Ev @2796
    _ZN6RakNet16PluginInterface2D0Ev @2797
    _ZN6RakNet16PluginInterface2D1Ev @2798
    _ZN6RakNet16PluginInterface2D2Ev @2799
    _ZN6RakNet16RNS2EventHandlerC2Ev @2800
    _ZN6RakNet16RNS2EventHandlerD2Ev @2801
    _ZN6RakNet16RakNetRandomSync11DeserializeEPNS_9BitStreamE @2802
    _ZN6RakNet16RakNetRandomSync12SetCallCountEj @2803
    _ZN6RakNet16RakNetRandomSync21SerializeConstructionEPNS_9BitStreamE @2804
    _ZN6RakNet16RakNetRandomSync23DeserializeConstructionEPNS_9BitStreamE @2805
    _ZN6RakNet16RakNetRandomSync4SkipEj @2806
    _ZN6RakNet16RakNetRandomSync6SeedMTEj @2807
    _ZN6RakNet16RakNetRandomSync6SeedMTEjj @2808
    _ZN6RakNet16RakNetRandomSync8RandomMTEv @2809
    _ZN6RakNet16RakNetRandomSync9FrandomMTEv @2810
    _ZN6RakNet16RakNetRandomSync9SerializeEPNS_9BitStreamE @2811
    _ZN6RakNet16RakNetRandomSyncC1Ev @2812
    _ZN6RakNet16RakNetRandomSyncC2Ev @2813
    _ZN6RakNet16RakNetRandomSyncD0Ev @2814
    _ZN6RakNet16RakNetRandomSyncD1Ev @2815
    _ZN6RakNet16RakNetRandomSyncD2Ev @2816
    _ZN6RakNet16RakNetStatisticspLERKS0_ @2817
    _ZN6RakNet16RakNetTransport211GetInstanceEv @2818
    _ZN6RakNet16RakNetTransport215CloseConnectionENS_13SystemAddressE @2819
    _ZN6RakNet16RakNetTransport215DestroyInstanceEPS0_ @2820
    _ZN6RakNet16RakNetTransport215OnNewConnectionERKNS_13SystemAddressENS_10RakNetGUIDEb @2821
    _ZN6RakNet16RakNetTransport216DeallocatePacketEPNS_6PacketE @2822
    _ZN6RakNet16RakNetTransport216GetCommandParserEv @2823
    _ZN6RakNet16RakNetTransport217HasLostConnectionEv @2824
    _ZN6RakNet16RakNetTransport218OnClosedConnectionERKNS_13SystemAddressENS_10RakNetGUIDENS_24PI2_LostConnectionReasonE @2825
    _ZN6RakNet16RakNetTransport224HasNewIncomingConnectionEv @2826
    _ZN6RakNet16RakNetTransport24SendENS_13SystemAddressEPKcz @2827
    _ZN6RakNet16RakNetTransport24StopEv @2828
    _ZN6RakNet16RakNetTransport25StartEtb @2829
    _ZN6RakNet16RakNetTransport27ReceiveEv @2830
    _ZN6RakNet16RakNetTransport29OnReceiveEPNS_6PacketE @2831
    _ZN6RakNet16RakNetTransport2C1Ev @2832
    _ZN6RakNet16RakNetTransport2C2Ev @2833
    _ZN6RakNet16RakNetTransport2D0Ev @2834
    _ZN6RakNet16RakNetTransport2D1Ev @2835
    _ZN6RakNet16RakNetTransport2D2Ev @2836
    _ZN6RakNet16RakPeerInterface11GetInstanceEv @2837
    _ZN6RakNet16RakPeerInterface15DestroyInstanceEPS0_ @2838
    _ZN6RakNet16RakPeerInterface26Get64BitUniqueRandomNumberEv @2839
    _ZN6RakNet16RakPeerInterfaceC2Ev @2840
    _ZN6RakNet16RakPeerInterfaceD2Ev @2841
    _ZN6RakNet16ReliabilityLayer10AckTimeoutEy @2842
    _ZN6RakNet16ReliabilityLayer10FreeMemoryEb @2843
    _ZN6RakNet16ReliabilityLayer10PushPacketEyPNS_14InternalPacketEb @2844
    _ZN6RakNet16ReliabilityLayer11PopListHeadEb @2845
    _ZN6RakNet16ReliabilityLayer11SplitPacketEPNS_14InternalPacketE @2846
    _ZN6RakNet16ReliabilityLayer12PushDatagramEv @2847
    _ZN6RakNet16ReliabilityLayer13AddToListTailEPNS_14InternalPacketEb @2848
    _ZN6RakNet16ReliabilityLayer13GetNextWeightEi @2849
    _ZN6RakNet16ReliabilityLayer13GetStatisticsEPNS_16RakNetStatisticsE @2850
    _ZN6RakNet16ReliabilityLayer13SendBitStreamEPNS_13RakNetSocket2ERNS_13SystemAddressEPNS_9BitStreamEPNS_12RakNetRandomEy @2851
    _ZN6RakNet16ReliabilityLayer14AreAcksWaitingEv @2852
    _ZN6RakNet16ReliabilityLayer14GetTimeoutTimeEv @2853
    _ZN6RakNet16ReliabilityLayer14KillConnectionEv @2854
    _ZN6RakNet16ReliabilityLayer14MoveToListHeadEPNS_14InternalPacketE @2855
    _ZN6RakNet16ReliabilityLayer14RemoveFromListEPNS_14InternalPacketEb @2856
    _ZN6RakNet16ReliabilityLayer14SetTimeoutTimeEj @2857
    _ZN6RakNet16ReliabilityLayer15InitHeapWeightsEv @2858
    _ZN6RakNet16ReliabilityLayer15IsSendThrottledEi @2859
    _ZN6RakNet16ReliabilityLayer19DatagramHistoryNodeC1EPNS0_17MessageNumberNodeEy @2860
    _ZN6RakNet16ReliabilityLayer19DatagramHistoryNodeC1Ev @2861
    _ZN6RakNet16ReliabilityLayer19InitializeVariablesEv @2862
    _ZN6RakNet16ReliabilityLayer19UpdateWindowFromAckEy @2863
    _ZN6RakNet16ReliabilityLayer20FreeThreadSafeMemoryEv @2864
    _ZN6RakNet16ReliabilityLayer20IsOlderOrderedPacketENS_8uint24_tES1_ @2865
    _ZN6RakNet16ReliabilityLayer20SetUnreliableTimeoutEj @2866
    _ZN6RakNet16ReliabilityLayer21ApplyNetworkSimulatorEdjj @2867
    _ZN6RakNet16ReliabilityLayer21IsOutgoingDataWaitingEv @2868
    _ZN6RakNet16ReliabilityLayer22FreeInternalPacketDataEPNS_14InternalPacketEPKcj @2869
    _ZN6RakNet16ReliabilityLayer23AllocInternalPacketDataEPNS_14InternalPacketEPPNS_28InternalPacketRefCountedDataEPhS6_ @2870
    _ZN6RakNet16ReliabilityLayer23AllocInternalPacketDataEPNS_14InternalPacketEPh @2871
    _ZN6RakNet16ReliabilityLayer23AllocInternalPacketDataEPNS_14InternalPacketEjbPKcj @2872
    _ZN6RakNet16ReliabilityLayer24ClearPacketsAndDatagramsEv @2873
    _ZN6RakNet16ReliabilityLayer24CreateInternalPacketCopyEPNS_14InternalPacketEiiy @2874
    _ZN6RakNet16ReliabilityLayer24ResetPacketsAndDatagramsEv @2875
    _ZN6RakNet16ReliabilityLayer25AddFirstToDatagramHistoryENS_8uint24_tES1_y @2876
    _ZN6RakNet16ReliabilityLayer25AddFirstToDatagramHistoryENS_8uint24_tEy @2877
    _ZN6RakNet16ReliabilityLayer25AddToUnreliableLinkedListEPNS_14InternalPacketE @2878
    _ZN6RakNet16ReliabilityLayer25InsertIntoSplitPacketListEPNS_14InternalPacketEy @2879
    _ZN6RakNet16ReliabilityLayer25RemoveFromDatagramHistoryENS_8uint24_tE @2880
    _ZN6RakNet16ReliabilityLayer25SendAcknowledgementPacketENS_8uint24_tEy @2881
    _ZN6RakNet16ReliabilityLayer26GetMessageHeaderLengthBitsEPKNS_14InternalPacketE @2882
    _ZN6RakNet16ReliabilityLayer26InsertPacketIntoResendListEPNS_14InternalPacketEybb @2883
    _ZN6RakNet16ReliabilityLayer26UpdateWindowFromPacketlossEy @2884
    _ZN6RakNet16ReliabilityLayer27ReleaseToInternalPacketPoolEPNS_14InternalPacketE @2885
    _ZN6RakNet16ReliabilityLayer28UnreliableWithAckReceiptNodeC1ENS_8uint24_tEjy @2886
    _ZN6RakNet16ReliabilityLayer28UnreliableWithAckReceiptNodeC1Ev @2887
    _ZN6RakNet16ReliabilityLayer28UnreliableWithAckReceiptNodeaSERKS1_ @2888
    _ZN6RakNet16ReliabilityLayer29GetMaxMessageHeaderLengthBitsEv @2889
    _ZN6RakNet16ReliabilityLayer30AddSubsequentToDatagramHistoryEPNS0_17MessageNumberNodeENS_8uint24_tE @2890
    _ZN6RakNet16ReliabilityLayer30AllocateFromInternalPacketPoolEv @2891
    _ZN6RakNet16ReliabilityLayer30BuildPacketFromSplitPacketListEPNS_18SplitPacketChannelEy @2892
    _ZN6RakNet16ReliabilityLayer30BuildPacketFromSplitPacketListEtyPNS_13RakNetSocket2ERNS_13SystemAddressEPNS_12RakNetRandomERNS_9BitStreamE @2893
    _ZN6RakNet16ReliabilityLayer30RemoveFromUnreliableLinkedListEPNS_14InternalPacketE @2894
    _ZN6RakNet16ReliabilityLayer31SetSplitMessageProgressIntervalEi @2895
    _ZN6RakNet16ReliabilityLayer33CreateInternalPacketFromBitStreamEPNS_9BitStreamEy @2896
    _ZN6RakNet16ReliabilityLayer34WriteToBitStreamFromInternalPacketEPNS_9BitStreamEPKNS_14InternalPacketEy @2897
    _ZN6RakNet16ReliabilityLayer35GetMessageNumberNodeByDatagramIndexENS_8uint24_tEPy @2898
    _ZN6RakNet16ReliabilityLayer37TagMostRecentPushAsSecondOfPacketPairEv @2899
    _ZN6RakNet16ReliabilityLayer38HandleSocketReceiveFromConnectedPlayerEPKcjRNS_13SystemAddressERN14DataStructures4ListIPNS_16PluginInterface2EEEiPNS_13RakNetSocket2EPNS_12RakNetRandomEyRNS_9BitStreamE @2900
    _ZN6RakNet16ReliabilityLayer44GetMaxDatagramSizeExcludingMessageHeaderBitsEv @2901
    _ZN6RakNet16ReliabilityLayer45GetMaxDatagramSizeExcludingMessageHeaderBytesEv @2902
    _ZN6RakNet16ReliabilityLayer4SendEPcj14PacketPriority17PacketReliabilityhbiyj @2903
    _ZN6RakNet16ReliabilityLayer57RemovePacketFromResendListAndDeleteOlderReliableSequencedENS_8uint24_tEyRN14DataStructures4ListIPNS_16PluginInterface2EEERKNS_13SystemAddressE @2904
    _ZN6RakNet16ReliabilityLayer5ResetEbib @2905
    _ZN6RakNet16ReliabilityLayer6UpdateEPNS_13RakNetSocket2ERNS_13SystemAddressEiyjRN14DataStructures4ListIPNS_16PluginInterface2EEEPNS_12RakNetRandomERNS_9BitStreamE @2906
    _ZN6RakNet16ReliabilityLayer7GetSHA1EPhjPc @2907
    _ZN6RakNet16ReliabilityLayer7ReceiveEPPh @2908
    _ZN6RakNet16ReliabilityLayer8SendACKsEPNS_13RakNetSocket2ERNS_13SystemAddressEyPNS_12RakNetRandomERNS_9BitStreamE @2909
    _ZN6RakNet16ReliabilityLayer9CheckSHA1EPcPhj @2910
    _ZN6RakNet16ReliabilityLayerC1Ev @2911
    _ZN6RakNet16ReliabilityLayerC2Ev @2912
    _ZN6RakNet16ReliabilityLayerD1Ev @2913
    _ZN6RakNet16ReliabilityLayerD2Ev @2914
    _ZN6RakNet16SocketDescriptorC1EtPKc @2915
    _ZN6RakNet16SocketDescriptorC1Ev @2916
    _ZN6RakNet16SocketDescriptorC2EtPKc @2917
    _ZN6RakNet16SocketDescriptorC2Ev @2918
    _ZN6RakNet16StringCompressor12AddReferenceEv @2919
    _ZN6RakNet16StringCompressor12DecodeStringEPNS_9RakStringEiPNS_9BitStreamEh @2920
    _ZN6RakNet16StringCompressor12DecodeStringEPciPNS_9BitStreamEh @2921
    _ZN6RakNet16StringCompressor12EncodeStringEPKNS_9RakStringEiPNS_9BitStreamEh @2922
    _ZN6RakNet16StringCompressor12EncodeStringEPKciPNS_9BitStreamEh @2923
    _ZN6RakNet16StringCompressor14referenceCountE @2924 DATA
    _ZN6RakNet16StringCompressor15RemoveReferenceEv @2925
    _ZN6RakNet16StringCompressor23GenerateTreeFromStringsEPhjh @2926
    _ZN6RakNet16StringCompressor8InstanceEv @2927
    _ZN6RakNet16StringCompressor8instanceE @2928 DATA
    _ZN6RakNet16StringCompressorC1Ev @2929
    _ZN6RakNet16StringCompressorC2Ev @2930
    _ZN6RakNet16StringCompressorD1Ev @2931
    _ZN6RakNet16StringCompressorD2Ev @2932
    _ZN6RakNet17StatisticsHistory11GetInstanceEv @2933
    _ZN6RakNet17StatisticsHistory12RemoveObjectEyPPv @2934
    _ZN6RakNet17StatisticsHistory13TrackedObjectC1Ev @2935
    _ZN6RakNet17StatisticsHistory13TrackedObjectC2Ev @2936
    _ZN6RakNet17StatisticsHistory13TrackedObjectD1Ev @2937
    _ZN6RakNet17StatisticsHistory13TrackedObjectD2Ev @2938
    _ZN6RakNet17StatisticsHistory15AddValueByIndexEjNS_9RakStringEdyb @2939
    _ZN6RakNet17StatisticsHistory15DestroyInstanceEPS0_ @2940
    _ZN6RakNet17StatisticsHistory16GetUniqueKeyListERN14DataStructures4ListINS_9RakStringEEE @2941
    _ZN6RakNet17StatisticsHistory17TimeAndValueQueue11InterpolateENS0_12TimeAndValueES2_y @2942
    _ZN6RakNet17StatisticsHistory17TimeAndValueQueue15ResizeSampleSetEiRN14DataStructures5QueueINS0_12TimeAndValueEEENS0_14SHDataCategoryEyy @2943
    _ZN6RakNet17StatisticsHistory17TimeAndValueQueue17CullExpiredValuesEy @2944
    _ZN6RakNet17StatisticsHistory17TimeAndValueQueue20SetTimeToTrackValuesEy @2945
    _ZN6RakNet17StatisticsHistory17TimeAndValueQueue5ClearEv @2946
    _ZN6RakNet17StatisticsHistory17TimeAndValueQueue9MergeSetsEPKS1_NS0_14SHDataCategoryES3_S4_PS1_ @2947
    _ZN6RakNet17StatisticsHistory17TimeAndValueQueueC1Ev @2948
    _ZN6RakNet17StatisticsHistory17TimeAndValueQueueC2Ev @2949
    _ZN6RakNet17StatisticsHistory17TimeAndValueQueueD1Ev @2950
    _ZN6RakNet17StatisticsHistory17TimeAndValueQueueD2Ev @2951
    _ZN6RakNet17StatisticsHistory17TimeAndValueQueueaSERKS1_ @2952
    _ZN6RakNet17StatisticsHistory17TrackedObjectCompERKyRKPNS0_13TrackedObjectE @2953
    _ZN6RakNet17StatisticsHistory17TrackedObjectDataC1Ev @2954
    _ZN6RakNet17StatisticsHistory17TrackedObjectDataC1EyiPv @2955
    _ZN6RakNet17StatisticsHistory17TrackedObjectDataC2Ev @2956
    _ZN6RakNet17StatisticsHistory17TrackedObjectDataC2EyiPv @2957
    _ZN6RakNet17StatisticsHistory18AddValueByObjectIDEyNS_9RakStringEdyb @2958
    _ZN6RakNet17StatisticsHistory19RemoveObjectAtIndexEj @2959
    _ZN6RakNet17StatisticsHistory21SetDefaultTimeToTrackEy @2960
    _ZN6RakNet17StatisticsHistory5ClearEv @2961
    _ZN6RakNet17StatisticsHistory9AddObjectENS0_17TrackedObjectDataE @2962
    _ZN6RakNet17StatisticsHistoryC1Ev @2963
    _ZN6RakNet17StatisticsHistoryC2Ev @2964
    _ZN6RakNet17StatisticsHistoryD0Ev @2965
    _ZN6RakNet17StatisticsHistoryD1Ev @2966
    _ZN6RakNet17StatisticsHistoryD2Ev @2967
    _ZN6RakNet17UpdateNetworkLoopEPv@4 @2968
    _ZN6RakNet18SendIRIToAddressCBENS_16FileListTransfer10ThreadDataEPbPv @2969
    _ZN6RakNet18SplitPacketChannelC1Ev @2970
    _ZN6RakNet18SplitPacketChannelD1Ev @2971
    _ZN6RakNet18StatisticsToStringEPNS_16RakNetStatisticsEPci @2972
    _ZN6RakNet18TransportInterfaceC2Ev @2973
    _ZN6RakNet18TransportInterfaceD2Ev @2974
    _ZN6RakNet19FullyConnectedMesh211GetInstanceEv @2975
    _ZN6RakNet19FullyConnectedMesh211PushNewHostERKNS_10RakNetGUIDES1_ @2976
    _ZN6RakNet19FullyConnectedMesh212GetHostOrderERN14DataStructures4ListINS_10RakNetGUIDEEE @2977
    _ZN6RakNet19FullyConnectedMesh213CalculateHostEPNS_10RakNetGUIDEPx @2978
    _ZN6RakNet19FullyConnectedMesh214AddParticipantENS_10RakNetGUIDE @2979
    _ZN6RakNet19FullyConnectedMesh214CategorizeVJIPEPNS0_22VerifiedJoinInProgressERN14DataStructures4ListINS_10RakNetGUIDEEES7_S7_S7_S7_ @2980
    _ZN6RakNet19FullyConnectedMesh214HasParticipantENS_10RakNetGUIDE @2981
    _ZN6RakNet19FullyConnectedMesh214SendOurFCMGuidENS_13SystemAddressE @2982
    _ZN6RakNet19FullyConnectedMesh215DestroyInstanceEPS0_ @2983
    _ZN6RakNet19FullyConnectedMesh215FCM2ParticipantC1Ev @2984
    _ZN6RakNet19FullyConnectedMesh215OnInformFCMGuidEPNS_6PacketE @2985
    _ZN6RakNet19FullyConnectedMesh215OnNewConnectionERKNS_13SystemAddressENS_10RakNetGUIDEb @2986
    _ZN6RakNet19FullyConnectedMesh216AssignOurFCMGuidEv @2987
    _ZN6RakNet19FullyConnectedMesh216OnRakPeerStartupEv @2988
    _ZN6RakNet19FullyConnectedMesh216OnRequestFCMGuidEPNS_6PacketE @2989
    _ZN6RakNet19FullyConnectedMesh216WriteVJCUserDataEPNS_9BitStreamE @2990
    _ZN6RakNet19FullyConnectedMesh216WriteVJSUserDataEPNS_9BitStreamENS_10RakNetGUIDE @2991
    _ZN6RakNet19FullyConnectedMesh217GetElapsedRuntimeEv @2992
    _ZN6RakNet19FullyConnectedMesh217OnRakPeerShutdownEv @2993
    _ZN6RakNet19FullyConnectedMesh217SkipToVJCUserDataEPNS_9BitStreamE @2994
    _ZN6RakNet19FullyConnectedMesh217StartVerifiedJoinENS_10RakNetGUIDE @2995
    _ZN6RakNet19FullyConnectedMesh218GetParticipantListERN14DataStructures4ListINS_10RakNetGUIDEEE @2996
    _ZN6RakNet19FullyConnectedMesh218OnClosedConnectionERKNS_13SystemAddressENS_10RakNetGUIDENS_24PI2_LostConnectionReasonE @2997
    _ZN6RakNet19FullyConnectedMesh218SendFCMGuidRequestENS_10RakNetGUIDE @2998
    _ZN6RakNet19FullyConnectedMesh219OnVerifiedJoinStartEPNS_6PacketE @2999
    _ZN6RakNet19FullyConnectedMesh220CalculateAndPushHostEv @3000
    _ZN6RakNet19FullyConnectedMesh220DecomposeJoinCapableEPNS_6PacketEPNS0_22VerifiedJoinInProgressE @3001
    _ZN6RakNet19FullyConnectedMesh220OnVerifiedJoinFailedENS_10RakNetGUIDEb @3002
    _ZN6RakNet19FullyConnectedMesh220ResetHostCalculationEv @3003
    _ZN6RakNet19FullyConnectedMesh221OnVerifiedJoinCapableEPNS_6PacketE @3004
    _ZN6RakNet19FullyConnectedMesh222AddParticipantInternalENS_10RakNetGUIDEx @3005
    _ZN6RakNet19FullyConnectedMesh222OnVerifiedJoinAcceptedEPNS_6PacketE @3006
    _ZN6RakNet19FullyConnectedMesh222OnVerifiedJoinRejectedEPNS_6PacketE @3007
    _ZN6RakNet19FullyConnectedMesh222VerifiedJoinInProgressC1Ev @3008
    _ZN6RakNet19FullyConnectedMesh222VerifiedJoinInProgressD1Ev @3009
    _ZN6RakNet19FullyConnectedMesh223ParticipantListCompleteEv @3010
    _ZN6RakNet19FullyConnectedMesh224OnRespondConnectionCountEPNS_6PacketE @3011
    _ZN6RakNet19FullyConnectedMesh224WriteVerifiedJoinCapableEPNS_9BitStreamEPNS0_22VerifiedJoinInProgressE @3012
    _ZN6RakNet19FullyConnectedMesh225OnFailedConnectionAttemptEPNS_6PacketENS_33PI2_FailedConnectionAttemptReasonE @3013
    _ZN6RakNet19FullyConnectedMesh227SendConnectionCountResponseENS_13SystemAddressEj @3014
    _ZN6RakNet19FullyConnectedMesh228RespondOnVerifiedJoinCapableEPNS_6PacketEbPNS_9BitStreamE @3015
    _ZN6RakNet19FullyConnectedMesh228VerifiedJoinInProgressMemberC1Ev @3016
    _ZN6RakNet19FullyConnectedMesh228VerifiedJoinInProgressMemberaSERKS1_ @3017
    _ZN6RakNet19FullyConnectedMesh229IncrementTotalConnectionCountEj @3018
    _ZN6RakNet19FullyConnectedMesh229SetAutoparticipateConnectionsEb @3019
    _ZN6RakNet19FullyConnectedMesh231OnUpdateMinTotalConnectionCountEPNS_6PacketE @3020
    _ZN6RakNet19FullyConnectedMesh231SetConnectOnNewRemoteConnectionEbNS_9RakStringE @3021
    _ZN6RakNet19FullyConnectedMesh232ReadVerifiedJoinInProgressMemberEPNS_9BitStreamEPNS0_28VerifiedJoinInProgressMemberE @3022
    _ZN6RakNet19FullyConnectedMesh234UpdateVerifiedJoinInProgressMemberENS_13AddressOrGUIDENS_10RakNetGUIDENS0_19JoinInProgressStateE @3023
    _ZN6RakNet19FullyConnectedMesh236GetVerifiedJoinInProgressMemberIndexENS_13AddressOrGUIDEPNS0_22VerifiedJoinInProgressE @3024
    _ZN6RakNet19FullyConnectedMesh237ConnectToRemoteNewIncomingConnectionsEPNS_6PacketE @3025
    _ZN6RakNet19FullyConnectedMesh237GetVerifiedJoinAcceptedAdditionalDataEPNS_6PacketEPbRN14DataStructures4ListINS_10RakNetGUIDEEEPNS_9BitStreamE @3026
    _ZN6RakNet19FullyConnectedMesh237GetVerifiedJoinRejectedAdditionalDataEPNS_6PacketEPNS_9BitStreamE @3027
    _ZN6RakNet19FullyConnectedMesh237GetVerifiedJoinRequiredProcessingListENS_10RakNetGUIDERN14DataStructures4ListINS_13SystemAddressEEERNS3_IS1_EERNS3_IPNS_9BitStreamEEE @3028
    _ZN6RakNet19FullyConnectedMesh240ProcessVerifiedJoinInProgressIfCompletedEPNS0_22VerifiedJoinInProgressE @3029
    _ZN6RakNet19FullyConnectedMesh25ClearEv @3030
    _ZN6RakNet19FullyConnectedMesh28OnAttachEv @3031
    _ZN6RakNet19FullyConnectedMesh29OnReceiveEPNS_6PacketE @3032
    _ZN6RakNet19FullyConnectedMesh2C1Ev @3033
    _ZN6RakNet19FullyConnectedMesh2C2Ev @3034
    _ZN6RakNet19FullyConnectedMesh2D0Ev @3035
    _ZN6RakNet19FullyConnectedMesh2D1Ev @3036
    _ZN6RakNet19FullyConnectedMesh2D2Ev @3037
    _ZN6RakNet19HuffmanEncodingTree10FreeMemoryEv @3038
    _ZN6RakNet19HuffmanEncodingTree11DecodeArrayEPNS_9BitStreamEjjPh @3039
    _ZN6RakNet19HuffmanEncodingTree11DecodeArrayEPhjPNS_9BitStreamE @3040
    _ZN6RakNet19HuffmanEncodingTree11EncodeArrayEPhjPNS_9BitStreamE @3041
    _ZN6RakNet19HuffmanEncodingTree26GenerateFromFrequencyTableEPj @3042
    _ZN6RakNet19HuffmanEncodingTreeC1Ev @3043
    _ZN6RakNet19HuffmanEncodingTreeC2Ev @3044
    _ZN6RakNet19HuffmanEncodingTreeD1Ev @3045
    _ZN6RakNet19HuffmanEncodingTreeD2Ev @3046
    _ZN6RakNet19PacketConsoleLogger19SetLogCommandParserEPNS_16LogCommandParserE @3047
    _ZN6RakNet19PacketConsoleLogger8WriteLogEPKc @3048
    _ZN6RakNet19PacketConsoleLoggerC1Ev @3049
    _ZN6RakNet19PacketConsoleLoggerC2Ev @3050
    _ZN6RakNet19PacketConsoleLoggerD0Ev @3051
    _ZN6RakNet19PacketConsoleLoggerD1Ev @3052
    _ZN6RakNet19RNS2_SendParametersC1Ev @3053
    _ZN6RakNet19RakNetCommandParser11GetInstanceEv @3054
    _ZN6RakNet19RakNetCommandParser15DestroyInstanceEPS0_ @3055
    _ZN6RakNet19RakNetCommandParser19SetRakPeerInterfaceEPNS_16RakPeerInterfaceE @3056
    _ZN6RakNet19RakNetCommandParser8SendHelpEPNS_18TransportInterfaceERKNS_13SystemAddressE @3057
    _ZN6RakNet19RakNetCommandParser9OnCommandEPKcjPPcPNS_18TransportInterfaceERKNS_13SystemAddressES2_ @3058
    _ZN6RakNet19RakNetCommandParserC1Ev @3059
    _ZN6RakNet19RakNetCommandParserC2Ev @3060
    _ZN6RakNet19RakNetCommandParserD0Ev @3061
    _ZN6RakNet19RakNetCommandParserD1Ev @3062
    _ZN6RakNet19RakNetCommandParserD2Ev @3063
    _ZN6RakNet19SerializeParametersC1Ev @3064
    _ZN6RakNet19SerializeParametersD1Ev @3065
    _ZN6RakNet19UDPProxyCoordinator11GetInstanceEv @3066
    _ZN6RakNet19UDPProxyCoordinator11SendAllBusyENS_13SystemAddressES1_NS_10RakNetGUIDES1_ @3067
    _ZN6RakNet19UDPProxyCoordinator13TryNextServerENS0_22SenderAndTargetAddressEPNS0_17ForwardingRequestE @3068
    _ZN6RakNet19UDPProxyCoordinator14ServerWithPingC1Ev @3069
    _ZN6RakNet19UDPProxyCoordinator14ServerWithPingaSERKS1_ @3070
    _ZN6RakNet19UDPProxyCoordinator15DestroyInstanceEPS0_ @3071
    _ZN6RakNet19UDPProxyCoordinator17ForwardingRequest26OrderRemainingServersToTryEv @3072
    _ZN6RakNet19UDPProxyCoordinator17ForwardingRequestC1Ev @3073
    _ZN6RakNet19UDPProxyCoordinator17ForwardingRequestD1Ev @3074
    _ZN6RakNet19UDPProxyCoordinator18OnClosedConnectionERKNS_13SystemAddressENS_10RakNetGUIDENS_24PI2_LostConnectionReasonE @3075
    _ZN6RakNet19UDPProxyCoordinator18ServerWithPingCompERKtRKNS0_14ServerWithPingE @3076
    _ZN6RakNet19UDPProxyCoordinator21ForwardingRequestCompERKNS0_22SenderAndTargetAddressERKPNS0_17ForwardingRequestE @3077
    _ZN6RakNet19UDPProxyCoordinator21SendForwardingRequestENS_13SystemAddressES1_S1_j @3078
    _ZN6RakNet19UDPProxyCoordinator22SenderAndTargetAddressC1Ev @3079
    _ZN6RakNet19UDPProxyCoordinator22SenderAndTargetAddressaSERKS1_ @3080
    _ZN6RakNet19UDPProxyCoordinator22SetRemoteLoginPasswordENS_9RakStringE @3081
    _ZN6RakNet19UDPProxyCoordinator37OnLoginRequestFromServerToCoordinatorEPNS_6PacketE @3082
    _ZN6RakNet19UDPProxyCoordinator40OnForwardingReplyFromServerToCoordinatorEPNS_6PacketE @3083
    _ZN6RakNet19UDPProxyCoordinator41OnPingServersReplyFromClientToCoordinatorEPNS_6PacketE @3084
    _ZN6RakNet19UDPProxyCoordinator42OnForwardingRequestFromClientToCoordinatorEPNS_6PacketE @3085
    _ZN6RakNet19UDPProxyCoordinator5ClearEv @3086
    _ZN6RakNet19UDPProxyCoordinator6UpdateEv @3087
    _ZN6RakNet19UDPProxyCoordinator9OnReceiveEPNS_6PacketE @3088
    _ZN6RakNet19UDPProxyCoordinatorC1Ev @3089
    _ZN6RakNet19UDPProxyCoordinatorC2Ev @3090
    _ZN6RakNet19UDPProxyCoordinatorD0Ev @3091
    _ZN6RakNet19UDPProxyCoordinatorD1Ev @3092
    _ZN6RakNet19UDPProxyCoordinatorD2Ev @3093
    _ZN6RakNet19_DLMallocDirectMMapEj @3094
    _ZN6RakNet20MessageFilterStrCompERKPcS2_ @3095
    _ZN6RakNet20NonNumericHostStringEPKc @3096
    _ZN6RakNet20ProcessNetworkPacketENS_13SystemAddressEPKciPNS_7RakPeerEPNS_13RakNetSocket2EyRNS_9BitStreamE @3097
    _ZN6RakNet20ProcessNetworkPacketENS_13SystemAddressEPKciPNS_7RakPeerEyRNS_9BitStreamE @3098
    _ZN6RakNet20TwoWayAuthentication10PushToUserEhNS_9RakStringENS_13AddressOrGUIDE @3099
    _ZN6RakNet20TwoWayAuthentication11AddPasswordENS_9RakStringES1_ @3100
    _ZN6RakNet20TwoWayAuthentication12OnNonceReplyEPNS_6PacketE @3101
    _ZN6RakNet20TwoWayAuthentication14NonceGenerator12GetNonceByIdEPctNS_13AddressOrGUIDEb @3102
    _ZN6RakNet20TwoWayAuthentication14NonceGenerator13GenerateNonceEPc @3103
    _ZN6RakNet20TwoWayAuthentication14NonceGenerator14ClearByAddressENS_13AddressOrGUIDE @3104
    _ZN6RakNet20TwoWayAuthentication14NonceGenerator5ClearEv @3105
    _ZN6RakNet20TwoWayAuthentication14NonceGenerator6UpdateEy @3106
    _ZN6RakNet20TwoWayAuthentication14NonceGenerator8GetNonceEPcPtNS_13AddressOrGUIDE @3107
    _ZN6RakNet20TwoWayAuthentication14NonceGeneratorC1Ev @3108
    _ZN6RakNet20TwoWayAuthentication14NonceGeneratorC2Ev @3109
    _ZN6RakNet20TwoWayAuthentication14NonceGeneratorD1Ev @3110
    _ZN6RakNet20TwoWayAuthentication14NonceGeneratorD2Ev @3111
    _ZN6RakNet20TwoWayAuthentication14OnNonceRequestEPNS_6PacketE @3112
    _ZN6RakNet20TwoWayAuthentication16OnPasswordResultEPNS_6PacketE @3113
    _ZN6RakNet20TwoWayAuthentication16PendingChallengeC1ERKS1_ @3114
    _ZN6RakNet20TwoWayAuthentication16PendingChallengeC1Ev @3115
    _ZN6RakNet20TwoWayAuthentication16PendingChallengeD1Ev @3116
    _ZN6RakNet20TwoWayAuthentication16PendingChallengeaSERKS1_ @3117
    _ZN6RakNet20TwoWayAuthentication17OnRakPeerShutdownEv @3118
    _ZN6RakNet20TwoWayAuthentication18OnClosedConnectionERKNS_13SystemAddressENS_10RakNetGUIDENS_24PI2_LostConnectionReasonE @3119
    _ZN6RakNet20TwoWayAuthentication24OnHashedNonceAndPasswordEPNS_6PacketE @3120
    _ZN6RakNet20TwoWayAuthentication27NonceAndRemoteSystemRequestC1Ev @3121
    _ZN6RakNet20TwoWayAuthentication4HashEPcNS_9RakStringES1_ @3122
    _ZN6RakNet20TwoWayAuthentication5ClearEv @3123
    _ZN6RakNet20TwoWayAuthentication6UpdateEv @3124
    _ZN6RakNet20TwoWayAuthentication9ChallengeENS_9RakStringENS_13AddressOrGUIDE @3125
    _ZN6RakNet20TwoWayAuthentication9OnReceiveEPNS_6PacketE @3126
    _ZN6RakNet20TwoWayAuthenticationC1Ev @3127
    _ZN6RakNet20TwoWayAuthenticationC2Ev @3128
    _ZN6RakNet20TwoWayAuthenticationD0Ev @3129
    _ZN6RakNet20TwoWayAuthenticationD1Ev @3130
    _ZN6RakNet20TwoWayAuthenticationD2Ev @3131
    _ZN6RakNet21CCRakNetSlidingWindow10OnSendNACKEyj @3132
    _ZN6RakNet21CCRakNetSlidingWindow11GreaterThanENS_8uint24_tES1_ @3133
    _ZN6RakNet21CCRakNetSlidingWindow11OnGotPacketENS_8uint24_tEbyjPj @3134
    _ZN6RakNet21CCRakNetSlidingWindow11OnSendBytesEyj @3135
    _ZN6RakNet21CCRakNetSlidingWindow14OnDuplicateAckEyNS_8uint24_tE @3136
    _ZN6RakNet21CCRakNetSlidingWindow14ShouldSendACKsEyy @3137
    _ZN6RakNet21CCRakNetSlidingWindow15OnGotPacketPairENS_8uint24_tEjy @3138
    _ZN6RakNet21CCRakNetSlidingWindow18OnSendAckGetBAndASEyPbPdS2_ @3139
    _ZN6RakNet21CCRakNetSlidingWindow24GetTransmissionBandwidthEyyjb @3140
    _ZN6RakNet21CCRakNetSlidingWindow26GetRetransmissionBandwidthEyyjb @3141
    _ZN6RakNet21CCRakNetSlidingWindow29GetNextDatagramSequenceNumberEv @3142
    _ZN6RakNet21CCRakNetSlidingWindow41GetAndIncrementNextDatagramSequenceNumberEv @3143
    _ZN6RakNet21CCRakNetSlidingWindow4InitEyj @3144
    _ZN6RakNet21CCRakNetSlidingWindow5OnAckEyybdddbNS_8uint24_tE @3145
    _ZN6RakNet21CCRakNetSlidingWindow5OnNAKEyNS_8uint24_tE @3146
    _ZN6RakNet21CCRakNetSlidingWindow6SetMTUEj @3147
    _ZN6RakNet21CCRakNetSlidingWindow6UpdateEyb @3148
    _ZN6RakNet21CCRakNetSlidingWindow8LessThanENS_8uint24_tES1_ @3149
    _ZN6RakNet21CCRakNetSlidingWindow8OnResendEyy @3150
    _ZN6RakNet21CCRakNetSlidingWindow9OnSendAckEyj @3151
    _ZN6RakNet21CCRakNetSlidingWindowC1Ev @3152
    _ZN6RakNet21CCRakNetSlidingWindowC2Ev @3153
    _ZN6RakNet21CCRakNetSlidingWindowD1Ev @3154
    _ZN6RakNet21CCRakNetSlidingWindowD2Ev @3155
    _ZN6RakNet21ConnectionAttemptLoopEPv@4 @3156
    _ZN6RakNet21DeserializeParametersC1Ev @3157
    _ZN6RakNet21DeserializeParametersD1Ev @3158
    _ZN6RakNet21NatPunchthroughClient11AddrAndGuidC1Ev @3159
    _ZN6RakNet21NatPunchthroughClient11AddrAndGuidaSERKS1_ @3160
    _ZN6RakNet21NatPunchthroughClient11GetInstanceEv @3161
    _ZN6RakNet21NatPunchthroughClient11PushFailureEv @3162
    _ZN6RakNet21NatPunchthroughClient11PushSuccessEv @3163
    _ZN6RakNet21NatPunchthroughClient12QueueOpenNATENS_10RakNetGUIDERKNS_13SystemAddressE @3164
    _ZN6RakNet21NatPunchthroughClient13SendOutOfBandENS_13SystemAddressEh @3165
    _ZN6RakNet21NatPunchthroughClient15DestroyInstanceEPS0_ @3166
    _ZN6RakNet21NatPunchthroughClient15OnConnectAtTimeEPNS_6PacketE @3167
    _ZN6RakNet21NatPunchthroughClient15OnNewConnectionERKNS_13SystemAddressENS_10RakNetGUIDEb @3168
    _ZN6RakNet21NatPunchthroughClient16SendPunchthroughENS_10RakNetGUIDERKNS_13SystemAddressE @3169
    _ZN6RakNet21NatPunchthroughClient17OnRakPeerShutdownEv @3170
    _ZN6RakNet21NatPunchthroughClient17SendQueuedOpenNATEv @3171
    _ZN6RakNet21NatPunchthroughClient17SetDebugInterfaceEPNS_29NatPunchthroughDebugInterfaceE @3172
    _ZN6RakNet21NatPunchthroughClient18OnClosedConnectionERKNS_13SystemAddressENS_10RakNetGUIDENS_24PI2_LostConnectionReasonE @3173
    _ZN6RakNet21NatPunchthroughClient19GetUPNPPortMappingsEPcS1_RKNS_13SystemAddressE @3174
    _ZN6RakNet21NatPunchthroughClient19OnGetMostRecentPortEPNS_6PacketE @3175
    _ZN6RakNet21NatPunchthroughClient20FindRouterPortStrideERKNS_13SystemAddressE @3176
    _ZN6RakNet21NatPunchthroughClient21OnFailureNotificationEPNS_6PacketE @3177
    _ZN6RakNet21NatPunchthroughClient21OnPunchthroughFailureEv @3178
    _ZN6RakNet21NatPunchthroughClient22RemoveFromFailureQueueEv @3179
    _ZN6RakNet21NatPunchthroughClient26OnReadyForNextPunchthroughEv @3180
    _ZN6RakNet21NatPunchthroughClient28GetPunchthroughConfigurationEv @3181
    _ZN6RakNet21NatPunchthroughClient29IncrementExternalAttemptCountEyy @3182
    _ZN6RakNet21NatPunchthroughClient5ClearEv @3183
    _ZN6RakNet21NatPunchthroughClient6UpdateEv @3184
    _ZN6RakNet21NatPunchthroughClient7OpenNATENS_10RakNetGUIDERKNS_13SystemAddressE @3185
    _ZN6RakNet21NatPunchthroughClient7SendTTLERKNS_13SystemAddressE @3186
    _ZN6RakNet21NatPunchthroughClient8OnAttachEv @3187
    _ZN6RakNet21NatPunchthroughClient8OnDetachEv @3188
    _ZN6RakNet21NatPunchthroughClient8SendPingC1Ev @3189
    _ZN6RakNet21NatPunchthroughClient9DSTAndFacC1Ev @3190
    _ZN6RakNet21NatPunchthroughClient9DSTAndFacaSERKS1_ @3191
    _ZN6RakNet21NatPunchthroughClient9OnReceiveEPNS_6PacketE @3192
    _ZN6RakNet21NatPunchthroughClientC1Ev @3193
    _ZN6RakNet21NatPunchthroughClientC2Ev @3194
    _ZN6RakNet21NatPunchthroughClientD0Ev @3195
    _ZN6RakNet21NatPunchthroughClientD1Ev @3196
    _ZN6RakNet21NatPunchthroughClientD2Ev @3197
    _ZN6RakNet21NatPunchthroughServer11GetInstanceEv @3198
    _ZN6RakNet21NatPunchthroughServer13OnClientReadyEPNS_6PacketE @3199
    _ZN6RakNet21NatPunchthroughServer15DestroyInstanceEPS0_ @3200
    _ZN6RakNet21NatPunchthroughServer15OnNewConnectionERKNS_13SystemAddressENS_10RakNetGUIDEb @3201
    _ZN6RakNet21NatPunchthroughServer17ConnectionAttemptC1Ev @3202
    _ZN6RakNet21NatPunchthroughServer17SetDebugInterfaceEPNS_35NatPunchthroughServerDebugInterfaceE @3203
    _ZN6RakNet21NatPunchthroughServer18OnClosedConnectionERKNS_13SystemAddressENS_10RakNetGUIDENS_24PI2_LostConnectionReasonE @3204
    _ZN6RakNet21NatPunchthroughServer19OnGetMostRecentPortEPNS_6PacketE @3205
    _ZN6RakNet21NatPunchthroughServer23NatPunchthroughUserCompERKNS_10RakNetGUIDERKPNS0_4UserE @3206
    _ZN6RakNet21NatPunchthroughServer24OnNATPunchthroughRequestEPNS_6PacketE @3207
    _ZN6RakNet21NatPunchthroughServer24StartPunchthroughForUserEPNS0_4UserE @3208
    _ZN6RakNet21NatPunchthroughServer4User21LogConnectionAttemptsERNS_9RakStringE @3209
    _ZN6RakNet21NatPunchthroughServer4User22DerefConnectionAttemptEPNS0_17ConnectionAttemptE @3210
    _ZN6RakNet21NatPunchthroughServer4User23DeleteConnectionAttemptEPNS0_17ConnectionAttemptE @3211
    _ZN6RakNet21NatPunchthroughServer4User26HasConnectionAttemptToUserEPS1_ @3212
    _ZN6RakNet21NatPunchthroughServer4UserC1Ev @3213
    _ZN6RakNet21NatPunchthroughServer4UserD1Ev @3214
    _ZN6RakNet21NatPunchthroughServer6UpdateEv @3215
    _ZN6RakNet21NatPunchthroughServer9OnReceiveEPNS_6PacketE @3216
    _ZN6RakNet21NatPunchthroughServerC1Ev @3217
    _ZN6RakNet21NatPunchthroughServerC2Ev @3218
    _ZN6RakNet21NatPunchthroughServerD0Ev @3219
    _ZN6RakNet21NatPunchthroughServerD1Ev @3220
    _ZN6RakNet21NatPunchthroughServerD2Ev @3221
    _ZN6RakNet21RegisteredCommandCompERKPKcRKNS_17RegisteredCommandE @3222
    _ZN6RakNet21Router2DebugInterface11ShowFailureEPKc @3223
    _ZN6RakNet21Router2DebugInterface14ShowDiagnosticEPKc @3224
    _ZN6RakNet21Router2DebugInterfaceD0Ev @3225
    _ZN6RakNet21Router2DebugInterfaceD1Ev @3226
    _ZN6RakNet22CommandParserInterface12ReturnResultENS_13SystemAddressEPKcPNS_18TransportInterfaceERKS1_ @3227
    _ZN6RakNet22CommandParserInterface12ReturnResultEPKcPNS_18TransportInterfaceERKNS_13SystemAddressE @3228
    _ZN6RakNet22CommandParserInterface12ReturnResultEPcPKcPNS_18TransportInterfaceERKNS_13SystemAddressE @3229
    _ZN6RakNet22CommandParserInterface12ReturnResultEbPKcPNS_18TransportInterfaceERKNS_13SystemAddressE @3230
    _ZN6RakNet22CommandParserInterface12ReturnResultEiPKcPNS_18TransportInterfaceERKNS_13SystemAddressE @3231
    _ZN6RakNet22CommandParserInterface15RegisterCommandEhPKcS2_ @3232
    _ZN6RakNet22CommandParserInterface15SendCommandListEPNS_18TransportInterfaceERKNS_13SystemAddressE @3233
    _ZN6RakNet22CommandParserInterface16OnConnectionLostERKNS_13SystemAddressEPNS_18TransportInterfaceE @3234
    _ZN6RakNet22CommandParserInterface17OnTransportChangeEPNS_18TransportInterfaceE @3235
    _ZN6RakNet22CommandParserInterface18ParseConsoleStringEPcchPjPS1_j @3236
    _ZN6RakNet22CommandParserInterface20GetRegisteredCommandEPKcPNS_17RegisteredCommandE @3237
    _ZN6RakNet22CommandParserInterface23OnNewIncomingConnectionERKNS_13SystemAddressEPNS_18TransportInterfaceE @3238
    _ZN6RakNet22CommandParserInterface29VARIABLE_NUMBER_OF_PARAMETERSE @3239 DATA
    _ZN6RakNet22CommandParserInterfaceC1Ev @3240
    _ZN6RakNet22CommandParserInterfaceC2Ev @3241
    _ZN6RakNet22CommandParserInterfaceD0Ev @3242
    _ZN6RakNet22CommandParserInterfaceD1Ev @3243
    _ZN6RakNet22CommandParserInterfaceD2Ev @3244
    _ZN6RakNet22DirectoryDeltaTransfer11GetInstanceEv @3245
    _ZN6RakNet22DirectoryDeltaTransfer12ClearUploadsEv @3246
    _ZN6RakNet22DirectoryDeltaTransfer14GenerateHashesERNS_8FileListEPKcb @3247
    _ZN6RakNet22DirectoryDeltaTransfer15DestroyInstanceEPS0_ @3248
    _ZN6RakNet22DirectoryDeltaTransfer17OnDownloadRequestEPNS_6PacketE @3249
    _ZN6RakNet22DirectoryDeltaTransfer23SetApplicationDirectoryEPKc @3250
    _ZN6RakNet22DirectoryDeltaTransfer23SetUploadSendParametersE14PacketPriorityc @3251
    _ZN6RakNet22DirectoryDeltaTransfer24DownloadFromSubdirectoryEPKcS2_bNS_13SystemAddressEPNS_27FileListTransferCBInterfaceE14PacketPrioritycPNS_16FileListProgressE @3252
    _ZN6RakNet22DirectoryDeltaTransfer24DownloadFromSubdirectoryERNS_8FileListEPKcS4_bNS_13SystemAddressEPNS_27FileListTransferCBInterfaceE14PacketPrioritycPNS_16FileListProgressE @3253
    _ZN6RakNet22DirectoryDeltaTransfer25SetFileListTransferPluginEPNS_16FileListTransferE @3254
    _ZN6RakNet22DirectoryDeltaTransfer26AddUploadsFromSubdirectoryEPKc @3255
    _ZN6RakNet22DirectoryDeltaTransfer42SetDownloadRequestIncrementalReadInterfaceEPNS_24IncrementalReadInterfaceEj @3256
    _ZN6RakNet22DirectoryDeltaTransfer9OnReceiveEPNS_6PacketE @3257
    _ZN6RakNet22DirectoryDeltaTransferC1Ev @3258
    _ZN6RakNet22DirectoryDeltaTransferC2Ev @3259
    _ZN6RakNet22DirectoryDeltaTransferD0Ev @3260
    _ZN6RakNet22DirectoryDeltaTransferD1Ev @3261
    _ZN6RakNet22DirectoryDeltaTransferD2Ev @3262
    _ZN6RakNet22NatTypeDetectionClient10OnRNS2RecvEPNS_14RNS2RecvStructE @3263
    _ZN6RakNet22NatTypeDetectionClient11GetInstanceEv @3264
    _ZN6RakNet22NatTypeDetectionClient12OnCompletionENS_22NATTypeDetectionResultE @3265
    _ZN6RakNet22NatTypeDetectionClient13DetectNATTypeENS_13SystemAddressE @3266
    _ZN6RakNet22NatTypeDetectionClient15DestroyInstanceEPS0_ @3267
    _ZN6RakNet22NatTypeDetectionClient17OnRakPeerShutdownEv @3268
    _ZN6RakNet22NatTypeDetectionClient18OnClosedConnectionERKNS_13SystemAddressENS_10RakNetGUIDENS_24PI2_LostConnectionReasonE @3269
    _ZN6RakNet22NatTypeDetectionClient19AllocRNS2RecvStructEPKcj @3270
    _ZN6RakNet22NatTypeDetectionClient20OnTestPortRestrictedEPNS_6PacketE @3271
    _ZN6RakNet22NatTypeDetectionClient21DeallocRNS2RecvStructEPNS_14RNS2RecvStructEPKcj @3272
    _ZN6RakNet22NatTypeDetectionClient6UpdateEv @3273
    _ZN6RakNet22NatTypeDetectionClient8OnDetachEv @3274
    _ZN6RakNet22NatTypeDetectionClient8ShutdownEv @3275
    _ZN6RakNet22NatTypeDetectionClient9OnReceiveEPNS_6PacketE @3276
    _ZN6RakNet22NatTypeDetectionClientC1Ev @3277
    _ZN6RakNet22NatTypeDetectionClientC2Ev @3278
    _ZN6RakNet22NatTypeDetectionClientD0Ev @3279
    _ZN6RakNet22NatTypeDetectionClientD1Ev @3280
    _ZN6RakNet22NatTypeDetectionClientD2Ev @3281
    _ZN6RakNet22NatTypeDetectionServer10OnRNS2RecvEPNS_14RNS2RecvStructE @3282
    _ZN6RakNet22NatTypeDetectionServer11GetInstanceEv @3283
    _ZN6RakNet22NatTypeDetectionServer15DestroyInstanceEPS0_ @3284
    _ZN6RakNet22NatTypeDetectionServer18OnClosedConnectionERKNS_13SystemAddressENS_10RakNetGUIDENS_24PI2_LostConnectionReasonE @3285
    _ZN6RakNet22NatTypeDetectionServer18OnDetectionRequestEPNS_6PacketE @3286
    _ZN6RakNet22NatTypeDetectionServer19AllocRNS2RecvStructEPKcj @3287
    _ZN6RakNet22NatTypeDetectionServer19NATDetectionAttemptC1Ev @3288
    _ZN6RakNet22NatTypeDetectionServer19NATDetectionAttemptaSERKS1_ @3289
    _ZN6RakNet22NatTypeDetectionServer21DeallocRNS2RecvStructEPNS_14RNS2RecvStructEPKcj @3290
    _ZN6RakNet22NatTypeDetectionServer24GetDetectionAttemptIndexENS_10RakNetGUIDE @3291
    _ZN6RakNet22NatTypeDetectionServer24GetDetectionAttemptIndexERKNS_13SystemAddressE @3292
    _ZN6RakNet22NatTypeDetectionServer6UpdateEv @3293
    _ZN6RakNet22NatTypeDetectionServer7StartupEPKcS2_S2_ @3294
    _ZN6RakNet22NatTypeDetectionServer8ShutdownEv @3295
    _ZN6RakNet22NatTypeDetectionServer9OnReceiveEPNS_6PacketE @3296
    _ZN6RakNet22NatTypeDetectionServerC1Ev @3297
    _ZN6RakNet22NatTypeDetectionServerC2Ev @3298
    _ZN6RakNet22NatTypeDetectionServerD0Ev @3299
    _ZN6RakNet22NatTypeDetectionServerD1Ev @3300
    _ZN6RakNet22NatTypeDetectionServerD2Ev @3301
    _ZN6RakNet22RNS2_Windows_Linux_36027Send_Windows_Linux_360NoVDPEiPNS_19RNS2_SendParametersEPKcj @3302
    _ZN6RakNet22RPC4GlobalRegistrationC1EPKcPFvPNS_9BitStreamEPNS_6PacketEE @3303
    _ZN6RakNet22RPC4GlobalRegistrationC1EPKcPFvPNS_9BitStreamEPNS_6PacketEEi @3304
    _ZN6RakNet22RPC4GlobalRegistrationC1EPKcPFvPNS_9BitStreamES4_PNS_6PacketEE @3305
    _ZN6RakNet22RPC4GlobalRegistrationC1EPKch @3306
    _ZN6RakNet22RPC4GlobalRegistrationC2EPKcPFvPNS_9BitStreamEPNS_6PacketEE @3307
    _ZN6RakNet22RPC4GlobalRegistrationC2EPKcPFvPNS_9BitStreamEPNS_6PacketEEi @3308
    _ZN6RakNet22RPC4GlobalRegistrationC2EPKcPFvPNS_9BitStreamES4_PNS_6PacketEE @3309
    _ZN6RakNet22RPC4GlobalRegistrationC2EPKch @3310
    _ZN6RakNet22RakNetSocket2Allocator11DeallocRNS2EPNS_13RakNetSocket2E @3311
    _ZN6RakNet22RakNetSocket2Allocator9AllocRNS2Ev @3312
    _ZN6RakNet22SplitPacketChannelCompERKtRKPNS_18SplitPacketChannelE @3313
    _ZN6RakNet22ThreadsafePacketLogger6UpdateEv @3314
    _ZN6RakNet22ThreadsafePacketLogger8AddToLogEPKc @3315
    _ZN6RakNet22ThreadsafePacketLoggerC1Ev @3316
    _ZN6RakNet22ThreadsafePacketLoggerC2Ev @3317
    _ZN6RakNet22ThreadsafePacketLoggerD0Ev @3318
    _ZN6RakNet22ThreadsafePacketLoggerD1Ev @3319
    _ZN6RakNet22ThreadsafePacketLoggerD2Ev @3320
    _ZN6RakNet22UpdateTCPInterfaceLoopEPv@4 @3321
    _ZN6RakNet23LastSerializationResult7AllocBSEv @3322
    _ZN6RakNet23LastSerializationResultC1Ev @3323
    _ZN6RakNet23LastSerializationResultC2Ev @3324
    _ZN6RakNet23LastSerializationResultD1Ev @3325
    _ZN6RakNet23LastSerializationResultD2Ev @3326
    _ZN6RakNet23StatisticsHistoryPlugin11GetInstanceEv @3327
    _ZN6RakNet23StatisticsHistoryPlugin15DestroyInstanceEPS0_ @3328
    _ZN6RakNet23StatisticsHistoryPlugin15OnNewConnectionERKNS_13SystemAddressENS_10RakNetGUIDEb @3329
    _ZN6RakNet23StatisticsHistoryPlugin18OnClosedConnectionERKNS_13SystemAddressENS_10RakNetGUIDENS_24PI2_LostConnectionReasonE @3330
    _ZN6RakNet23StatisticsHistoryPlugin19SetTrackConnectionsEbib @3331
    _ZN6RakNet23StatisticsHistoryPlugin6UpdateEv @3332
    _ZN6RakNet23StatisticsHistoryPluginC1Ev @3333
    _ZN6RakNet23StatisticsHistoryPluginC2Ev @3334
    _ZN6RakNet23StatisticsHistoryPluginD0Ev @3335
    _ZN6RakNet23StatisticsHistoryPluginD1Ev @3336
    _ZN6RakNet23StatisticsHistoryPluginD2Ev @3337
    _ZN6RakNet23VariableDeltaSerializer12EndSerializeEPNS0_20SerializationContextE @3338
    _ZN6RakNet23VariableDeltaSerializer14EndDeserializeEPNS0_22DeserializationContextE @3339
    _ZN6RakNet23VariableDeltaSerializer16BeginDeserializeEPNS0_22DeserializationContextEPNS_9BitStreamE @3340
    _ZN6RakNet23VariableDeltaSerializer16OnMessageReceiptENS_10RakNetGUIDEjb @3341
    _ZN6RakNet23VariableDeltaSerializer18OnPreSerializeTickEv @3342
    _ZN6RakNet23VariableDeltaSerializer20BeginUniqueSerializeEPNS0_20SerializationContextENS_10RakNetGUIDEPNS_9BitStreamE @3343
    _ZN6RakNet23VariableDeltaSerializer20SerializationContextC1Ev @3344
    _ZN6RakNet23VariableDeltaSerializer20SerializationContextC2Ev @3345
    _ZN6RakNet23VariableDeltaSerializer20SerializationContextD1Ev @3346
    _ZN6RakNet23VariableDeltaSerializer20SerializationContextD2Ev @3347
    _ZN6RakNet23VariableDeltaSerializer23BeginIdenticalSerializeEPNS0_20SerializationContextEbPNS_9BitStreamE @3348
    _ZN6RakNet23VariableDeltaSerializer24FreeChangedVariablesListEPNS0_20ChangedVariablesListE @3349
    _ZN6RakNet23VariableDeltaSerializer25AllocChangedVariablesListEv @3350
    _ZN6RakNet23VariableDeltaSerializer25StartVariableHistoryWriteENS_10RakNetGUIDE @3351
    _ZN6RakNet23VariableDeltaSerializer25StoreChangedVariablesListEPNS0_27RemoteSystemVariableHistoryEPNS0_20ChangedVariablesListEj @3352
    _ZN6RakNet23VariableDeltaSerializer27RemoteSystemVariableHistoryC1Ev @3353
    _ZN6RakNet23VariableDeltaSerializer27RemoteSystemVariableHistoryD1Ev @3354
    _ZN6RakNet23VariableDeltaSerializer27UpdatedVariablesListPtrCompERKjRKPNS0_20ChangedVariablesListE @3355
    _ZN6RakNet23VariableDeltaSerializer29BeginUnreliableAckedSerializeEPNS0_20SerializationContextENS_10RakNetGUIDEPNS_9BitStreamEj @3356
    _ZN6RakNet23VariableDeltaSerializer29FreeVarsAssociatedWithReceiptENS_10RakNetGUIDEj @3357
    _ZN6RakNet23VariableDeltaSerializer30AddRemoteSystemVariableHistoryENS_10RakNetGUIDE @3358
    _ZN6RakNet23VariableDeltaSerializer30GetRemoteSystemVariableHistoryENS_10RakNetGUIDE @3359
    _ZN6RakNet23VariableDeltaSerializer31GetRemoteSystemHistoryListIndexENS_10RakNetGUIDE @3360
    _ZN6RakNet23VariableDeltaSerializer33RemoveRemoteSystemVariableHistoryENS_10RakNetGUIDE @3361
    _ZN6RakNet23VariableDeltaSerializer33RemoveRemoteSystemVariableHistoryEv @3362
    _ZN6RakNet23VariableDeltaSerializer37DirtyAndFreeVarsAssociatedWithReceiptENS_10RakNetGUIDEj @3363
    _ZN6RakNet23VariableDeltaSerializer38GetVarsWrittenPerRemoteSystemListIndexENS_10RakNetGUIDE @3364
    _ZN6RakNet23VariableDeltaSerializerC1Ev @3365
    _ZN6RakNet23VariableDeltaSerializerC2Ev @3366
    _ZN6RakNet23VariableDeltaSerializerD1Ev @3367
    _ZN6RakNet23VariableDeltaSerializerD2Ev @3368
    _ZN6RakNet24IncrementalReadInterface11GetFilePartEPKcjjPv19FileListNodeContext @3369
    _ZN6RakNet24IncrementalReadInterfaceD0Ev @3370
    _ZN6RakNet24IncrementalReadInterfaceD1Ev @3371
    _ZN6RakNet24PacketOutputWindowLogger8WriteLogEPKc @3372
    _ZN6RakNet24PacketOutputWindowLoggerC1Ev @3373
    _ZN6RakNet24PacketOutputWindowLoggerC2Ev @3374
    _ZN6RakNet24PacketOutputWindowLoggerD0Ev @3375
    _ZN6RakNet24PacketOutputWindowLoggerD1Ev @3376
    _ZN6RakNet24PacketOutputWindowLoggerD2Ev @3377
    _ZN6RakNet24UpdateUDPForwarderGlobalEPv@4 @3378
    _ZN6RakNet24VariableListDeltaTracker10StartWriteEv @3379
    _ZN6RakNet24VariableListDeltaTracker21FlagDirtyFromBitArrayEPh @3380
    _ZN6RakNet24VariableListDeltaTracker21VariableLastValueNodeC1EPKhi @3381
    _ZN6RakNet24VariableListDeltaTracker21VariableLastValueNodeC1Ev @3382
    _ZN6RakNet24VariableListDeltaTracker21VariableLastValueNodeC2EPKhi @3383
    _ZN6RakNet24VariableListDeltaTracker21VariableLastValueNodeC2Ev @3384
    _ZN6RakNet24VariableListDeltaTracker21VariableLastValueNodeD1Ev @3385
    _ZN6RakNet24VariableListDeltaTracker21VariableLastValueNodeD2Ev @3386
    _ZN6RakNet24VariableListDeltaTrackerC1Ev @3387
    _ZN6RakNet24VariableListDeltaTrackerC2Ev @3388
    _ZN6RakNet24VariableListDeltaTrackerD1Ev @3389
    _ZN6RakNet24VariableListDeltaTrackerD2Ev @3390
    _ZN6RakNet25LastSerializationResultBSC1Ev @3391
    _ZN6RakNet25LastSerializationResultBSD1Ev @3392
    _ZN6RakNet25PunchthroughConfigurationC1Ev @3393
    _ZN6RakNet27FileListTransferCBInterface12OnFileStructC1Ev @3394
    _ZN6RakNet27FileListTransferCBInterface12OnFileStructD1Ev @3395
    _ZN6RakNet27FileListTransferCBInterface13OnDereferenceEv @3396
    _ZN6RakNet27FileListTransferCBInterface18FileProgressStructC1Ev @3397
    _ZN6RakNet27FileListTransferCBInterface18OnDownloadCompleteEPNS0_22DownloadCompleteStructE @3398
    _ZN6RakNet27FileListTransferCBInterface22DownloadCompleteStructC1Ev @3399
    _ZN6RakNet27FileListTransferCBInterface6UpdateEv @3400
    _ZN6RakNet27FileListTransferCBInterfaceC2Ev @3401
    _ZN6RakNet27FileListTransferCBInterfaceD2Ev @3402
    _ZN6RakNet27ProcessOfflineNetworkPacketENS_13SystemAddressEPKciPNS_7RakPeerEPNS_13RakNetSocket2EPby @3403
    _ZN6RakNet28CreateNonblockingBoundSocketEPKcPNS_16RNS2EventHandlerE @3404
    _ZN6RakNet29NatPunchthroughDebugInterfaceD2Ev @3405
    _ZN6RakNet30NATTypeDetectionResultToStringENS_22NATTypeDetectionResultE @3406
    _ZN6RakNet35NatPunchthroughServerDebugInterfaceD2Ev @3407
    _ZN6RakNet36NatPunchthroughDebugInterface_Printf15OnClientMessageEPKc @3408
    _ZN6RakNet36NatPunchthroughDebugInterface_PrintfD0Ev @3409
    _ZN6RakNet36NatPunchthroughDebugInterface_PrintfD1Ev @3410
    _ZN6RakNet38NATTypeDetectionResultToStringFriendlyENS_22NATTypeDetectionResultE @3411
    _ZN6RakNet41InternalPacketFixedSizeTransmissionHeaderC2Ev @3412
    _ZN6RakNet41InternalPacketFixedSizeTransmissionHeaderaSERKS0_ @3413
    _ZN6RakNet42NatPunchthroughDebugInterface_PacketLogger15OnClientMessageEPKc @3414
    _ZN6RakNet42NatPunchthroughDebugInterface_PacketLoggerD0Ev @3415
    _ZN6RakNet42NatPunchthroughDebugInterface_PacketLoggerD1Ev @3416
    _ZN6RakNet42NatPunchthroughServerDebugInterface_Printf15OnServerMessageEPKc @3417
    _ZN6RakNet42NatPunchthroughServerDebugInterface_PrintfD0Ev @3418
    _ZN6RakNet42NatPunchthroughServerDebugInterface_PrintfD1Ev @3419
    _ZN6RakNet48NatPunchthroughServerDebugInterface_PacketLogger15OnServerMessageEPKc @3420
    _ZN6RakNet48NatPunchthroughServerDebugInterface_PacketLoggerD0Ev @3421
    _ZN6RakNet48NatPunchthroughServerDebugInterface_PacketLoggerD1Ev @3422
    _ZN6RakNet4RPC411GetInstanceEv @3423
    _ZN6RakNet4RPC412CallBlockingEPKcPNS_9BitStreamE14PacketPriority17PacketReliabilitycNS_13AddressOrGUIDES4_ @3424
    _ZN6RakNet4RPC412CallLoopbackEPKcPNS_9BitStreamE @3425
    _ZN6RakNet4RPC412InvokeSignalEN14DataStructures9HashIndexEPNS_9BitStreamEPNS_6PacketE @3426
    _ZN6RakNet4RPC412RegisterSlotEPKcPFvPNS_9BitStreamEPNS_6PacketEEi @3427
    _ZN6RakNet4RPC413LocalCallbackC1Ev @3428
    _ZN6RakNet4RPC413LocalCallbackD1Ev @3429
    _ZN6RakNet4RPC414UnregisterSlotEPKc @3430
    _ZN6RakNet4RPC415DestroyInstanceEPS0_ @3431
    _ZN6RakNet4RPC415InterruptSignalEv @3432
    _ZN6RakNet4RPC415LocalSlotObjectC1EjiPFvPNS_9BitStreamEPNS_6PacketEE @3433
    _ZN6RakNet4RPC415LocalSlotObjectC1Ev @3434
    _ZN6RakNet4RPC415LocalSlotObjectD1Ev @3435
    _ZN6RakNet4RPC416RegisterFunctionEPKcPFvPNS_9BitStreamEPNS_6PacketEE @3436
    _ZN6RakNet4RPC417GetLocalSlotIndexEPKc @3437
    _ZN6RakNet4RPC417LocalCallbackCompERKhRKPNS0_13LocalCallbackE @3438
    _ZN6RakNet4RPC418UnregisterFunctionEPKc @3439
    _ZN6RakNet4RPC419LocalSlotObjectCompERKNS0_15LocalSlotObjectES3_ @3440
    _ZN6RakNet4RPC421RegisterLocalCallbackEPKch @3441
    _ZN6RakNet4RPC423UnregisterLocalCallbackEPKch @3442
    _ZN6RakNet4RPC424RegisterBlockingFunctionEPKcPFvPNS_9BitStreamES4_PNS_6PacketEE @3443
    _ZN6RakNet4RPC426UnregisterBlockingFunctionEPKc @3444
    _ZN6RakNet4RPC44CallEPKcPNS_9BitStreamE14PacketPriority17PacketReliabilitycNS_13AddressOrGUIDEb @3445
    _ZN6RakNet4RPC46SignalEPKcPNS_9BitStreamE14PacketPriority17PacketReliabilitycNS_13AddressOrGUIDEbb @3446
    _ZN6RakNet4RPC48OnAttachEv @3447
    _ZN6RakNet4RPC49LocalSlotC1Ev @3448
    _ZN6RakNet4RPC49LocalSlotD1Ev @3449
    _ZN6RakNet4RPC49OnReceiveEPNS_6PacketE @3450
    _ZN6RakNet4RPC4C1Ev @3451
    _ZN6RakNet4RPC4C2Ev @3452
    _ZN6RakNet4RPC4D0Ev @3453
    _ZN6RakNet4RPC4D1Ev @3454
    _ZN6RakNet4RPC4D2Ev @3455
    _ZN6RakNet6DynDNS12SetCompletedENS_16DynDnsResultCodeEPKc @3456
    _ZN6RakNet6DynDNS18UpdateHostIPAsynchEPKcS2_S2_ @3457
    _ZN6RakNet6DynDNS4StopEv @3458
    _ZN6RakNet6DynDNS6UpdateEv @3459
    _ZN6RakNet6DynDNSC1Ev @3460
    _ZN6RakNet6DynDNSC2Ev @3461
    _ZN6RakNet6DynDNSD1Ev @3462
    _ZN6RakNet6DynDNSD2Ev @3463
    _ZN6RakNet6OP_NEWI11DDTCallbackEEPT_PKcj @3464
    _ZN6RakNet6OP_NEWI23HuffmanEncodingTreeNodeEEPT_PKcj @3465
    _ZN6RakNet6OP_NEWIN14DataStructures18CircularLinkedListIP23HuffmanEncodingTreeNodeE4nodeEEEPT_PKcj @3466
    _ZN6RakNet6OP_NEWIN14DataStructures22SingleProducerConsumerIPcE11DataPlusPtrEEEPT_PKcj @3467
    _ZN6RakNet6OP_NEWIN14DataStructures5Table3RowEEEPT_PKcj @3468
    _ZN6RakNet6OP_NEWIN14DataStructures5Table4CellEEEPT_PKcj @3469
    _ZN6RakNet6OP_NEWIN14DataStructures9ByteQueueEEEPT_PKcj @3470
    _ZN6RakNet6OP_NEWINS_10FLP_PrintfEEEPT_PKcj @3471
    _ZN6RakNet6OP_NEWINS_10ReadyEvent14ReadyEventNodeEEEPT_PKcj @3472
    _ZN6RakNet6OP_NEWINS_10ReadyEventEEEPT_PKcj @3473
    _ZN6RakNet6OP_NEWINS_11CloudClientEEEPT_PKcj @3474
    _ZN6RakNet6OP_NEWINS_11CloudServer10GetRequestEEEPT_PKcj @3475
    _ZN6RakNet6OP_NEWINS_11CloudServer12RemoteServerEEEPT_PKcj @3476
    _ZN6RakNet6OP_NEWINS_11CloudServer13CloudDataListEEEPT_PKcj @3477
    _ZN6RakNet6OP_NEWINS_11CloudServer15KeySubscriberIDEEEPT_PKcj @3478
    _ZN6RakNet6OP_NEWINS_11CloudServer17RemoteCloudClientEEEPT_PKcj @3479
    _ZN6RakNet6OP_NEWINS_11CloudServer29BufferedGetResponseFromServerEEEPT_PKcj @3480
    _ZN6RakNet6OP_NEWINS_11CloudServer9CloudDataEEEPT_PKcj @3481
    _ZN6RakNet6OP_NEWINS_11EmailSenderEEEPT_PKcj @3482
    _ZN6RakNet6OP_NEWINS_11RelayPlugin17StrAndGuidAndRoomEEEPT_PKcj @3483
    _ZN6RakNet6OP_NEWINS_11RelayPlugin8RP_GroupEEEPT_PKcj @3484
    _ZN6RakNet6OP_NEWINS_11RelayPluginEEEPT_PKcj @3485
    _ZN6RakNet6OP_NEWINS_11SimpleMutexEEEPT_PKcj @3486
    _ZN6RakNet6OP_NEWINS_11StringTableEEEPT_PKcj @3487
    _ZN6RakNet6OP_NEWINS_11TeamManagerEEEPT_PKcj @3488
    _ZN6RakNet6OP_NEWINS_12PacketLoggerEEEPT_PKcj @3489
    _ZN6RakNet6OP_NEWINS_12RNS2_WindowsEEEPT_PKcj @3490
    _ZN6RakNet6OP_NEWINS_12TCPInterface18ThisPtrPlusSysAddrEEEPT_PKcj @3491
    _ZN6RakNet6OP_NEWINS_12TCPInterfaceEEEPT_PKcj @3492
    _ZN6RakNet6OP_NEWINS_12TeamBalancerEEEPT_PKcj @3493
    _ZN6RakNet6OP_NEWINS_12UDPForwarder12ForwardEntryEEEPT_PKcj @3494
    _ZN6RakNet6OP_NEWINS_12UDPForwarderEEEPT_PKcj @3495
    _ZN6RakNet6OP_NEWINS_13CloudQueryRowEEEPT_PKcj @3496
    _ZN6RakNet6OP_NEWINS_13ConsoleServerEEEPT_PKcj @3497
    _ZN6RakNet6OP_NEWINS_13MessageFilterEEEPT_PKcj @3498
    _ZN6RakNet6OP_NEWINS_13PacketizedTCPEEEPT_PKcj @3499
    _ZN6RakNet6OP_NEWINS_13TM_TeamMemberEEEPT_PKcj @3500
    _ZN6RakNet6OP_NEWINS_14DataCompressorEEEPT_PKcj @3501
    _ZN6RakNet6OP_NEWINS_14HTTPConnectionEEEPT_PKcj @3502
    _ZN6RakNet6OP_NEWINS_14RNS2RecvStructEEEPT_PKcj @3503
    _ZN6RakNet6OP_NEWINS_14UDPProxyClient15PingServerGroupEEEPT_PKcj @3504
    _ZN6RakNet6OP_NEWINS_14UDPProxyClientEEEPT_PKcj @3505
    _ZN6RakNet6OP_NEWINS_14UDPProxyServerEEEPT_PKcj @3506
    _ZN6RakNet6OP_NEWINS_15HTTPConnection27RequestEEEPT_PKcj @3507
    _ZN6RakNet6OP_NEWINS_15HTTPConnection2EEEPT_PKcj @3508
    _ZN6RakNet6OP_NEWINS_15ReplicaManager38RM3WorldEEEPT_PKcj @3509
    _ZN6RakNet6OP_NEWINS_15TelnetTransportEEEPT_PKcj @3510
    _ZN6RakNet6OP_NEWINS_16ConnectionGraph212RemoteSystemEEEPT_PKcj @3511
    _ZN6RakNet6OP_NEWINS_16ConnectionGraph2EEEPT_PKcj @3512
    _ZN6RakNet6OP_NEWINS_16FileListProgressEEEPT_PKcj @3513
    _ZN6RakNet6OP_NEWINS_16FileListReceiverEEEPT_PKcj @3514
    _ZN6RakNet6OP_NEWINS_16FileListTransfer10FileToPushEEEPT_PKcj @3515
    _ZN6RakNet6OP_NEWINS_16FileListTransfer19FileToPushRecipientEEEPT_PKcj @3516
    _ZN6RakNet6OP_NEWINS_16FileListTransferEEEPT_PKcj @3517
    _ZN6RakNet6OP_NEWINS_16LogCommandParserEEEPT_PKcj @3518
    _ZN6RakNet6OP_NEWINS_16NetworkIDManagerEEEPT_PKcj @3519
    _ZN6RakNet6OP_NEWINS_16RakNetTransport2EEEPT_PKcj @3520
    _ZN6RakNet6OP_NEWINS_16StringCompressorEEEPT_PKcj @3521
    _ZN6RakNet6OP_NEWINS_17StatisticsHistory13TrackedObjectEEEPT_PKcj @3522
    _ZN6RakNet6OP_NEWINS_17StatisticsHistory17TimeAndValueQueueEEEPT_PKcj @3523
    _ZN6RakNet6OP_NEWINS_17StatisticsHistoryEEEPT_PKcj @3524
    _ZN6RakNet6OP_NEWINS_18SplitPacketChannelEEEPT_PKcj @3525
    _ZN6RakNet6OP_NEWINS_19FullyConnectedMesh215FCM2ParticipantEEEPT_PKcj @3526
    _ZN6RakNet6OP_NEWINS_19FullyConnectedMesh222VerifiedJoinInProgressEEEPT_PKcj @3527
    _ZN6RakNet6OP_NEWINS_19FullyConnectedMesh2EEEPT_PKcj @3528
    _ZN6RakNet6OP_NEWINS_19HuffmanEncodingTreeEEEPT_PKcj @3529
    _ZN6RakNet6OP_NEWINS_19RakNetCommandParserEEEPT_PKcj @3530
    _ZN6RakNet6OP_NEWINS_19UDPProxyCoordinator17ForwardingRequestEEEPT_PKcj @3531
    _ZN6RakNet6OP_NEWINS_19UDPProxyCoordinatorEEEPT_PKcj @3532
    _ZN6RakNet6OP_NEWINS_20TwoWayAuthentication27NonceAndRemoteSystemRequestEEEPT_PKcj @3533
    _ZN6RakNet6OP_NEWINS_21NatPunchthroughClientEEEPT_PKcj @3534
    _ZN6RakNet6OP_NEWINS_21NatPunchthroughServer17ConnectionAttemptEEEPT_PKcj @3535
    _ZN6RakNet6OP_NEWINS_21NatPunchthroughServer4UserEEEPT_PKcj @3536
    _ZN6RakNet6OP_NEWINS_21NatPunchthroughServerEEEPT_PKcj @3537
    _ZN6RakNet6OP_NEWINS_22DirectoryDeltaTransferEEEPT_PKcj @3538
    _ZN6RakNet6OP_NEWINS_22NatTypeDetectionClientEEEPT_PKcj @3539
    _ZN6RakNet6OP_NEWINS_22NatTypeDetectionServerEEEPT_PKcj @3540
    _ZN6RakNet6OP_NEWINS_23LastSerializationResultEEEPT_PKcj @3541
    _ZN6RakNet6OP_NEWINS_23StatisticsHistoryPluginEEEPT_PKcj @3542
    _ZN6RakNet6OP_NEWINS_25LastSerializationResultBSEEEPT_PKcj @3543
    _ZN6RakNet6OP_NEWINS_4RPC413LocalCallbackEEEPT_PKcj @3544
    _ZN6RakNet6OP_NEWINS_4RPC49LocalSlotEEEPT_PKcj @3545
    _ZN6RakNet6OP_NEWINS_4RPC4EEEPT_PKcj @3546
    _ZN6RakNet6OP_NEWINS_6PacketEEEPT_PKcj @3547
    _ZN6RakNet6OP_NEWINS_7RakPeer25RequestedConnectionStructEEEPT_PKcj @3548
    _ZN6RakNet6OP_NEWINS_7RakPeer9BanStructEEEPT_PKcj @3549
    _ZN6RakNet6OP_NEWINS_7RakPeerEEEPT_PKcj @3550
    _ZN6RakNet6OP_NEWINS_7Router215ConnnectRequestEEEPT_PKcj @3551
    _ZN6RakNet6OP_NEWINS_7Router2EEEPT_PKcj @3552
    _ZN6RakNet6OP_NEWINS_7TM_TeamEEEPT_PKcj @3553
    _ZN6RakNet6OP_NEWINS_8FileListEEEPT_PKcj @3554
    _ZN6RakNet6OP_NEWINS_8TM_WorldEEEPT_PKcj @3555
    _ZN6RakNet6OP_NEWINS_9BitStreamEEEPT_PKcj @3556
    _ZN6RakNet6OP_NEWINS_9FilterSetEEEPT_PKcj @3557
    _ZN6RakNet6PacketC1Ev @3558
    _ZN6RakNet6PacketaSERKS0_ @3559
    _ZN6RakNet7GetTimeEv @3560
    _ZN6RakNet7RakPeer10FillIPListEv @3561
    _ZN6RakNet7RakPeer10GetLocalIPEj @3562
    _ZN6RakNet7RakPeer10GetSocketsERN14DataStructures4ListIPNS_13RakNetSocket2EEE @3563
    _ZN6RakNet7RakPeer10OnRNS2RecvEPNS_14RNS2RecvStructE @3564
    _ZN6RakNet7RakPeer11AllocPacketEjPKcj @3565
    _ZN6RakNet7RakPeer11AllocPacketEjPhPKcj @3566
    _ZN6RakNet7RakPeer12AddToBanListEPKcj @3567
    _ZN6RakNet7RakPeer12AttachPluginEPNS_16PluginInterface2E @3568
    _ZN6RakNet7RakPeer12ClearBanListEv @3569
    _ZN6RakNet7RakPeer12DetachPluginEPNS_16PluginInterface2E @3570
    _ZN6RakNet7RakPeer12GenerateGUIDEv @3571
    _ZN6RakNet7RakPeer12PingInternalENS_13SystemAddressEb17PacketReliability @3572
    _ZN6RakNet7RakPeer12SendBufferedEPKcj14PacketPriority17PacketReliabilitycNS_13AddressOrGUIDEbNS0_18RemoteSystemStruct11ConnectModeEj @3573
    _ZN6RakNet7RakPeer12SendLoopbackEPKci @3574
    _ZN6RakNet7RakPeer13GetStatisticsENS_13SystemAddressEPNS_16RakNetStatisticsE @3575
    _ZN6RakNet7RakPeer13GetStatisticsEjPNS_16RakNetStatisticsE @3576
    _ZN6RakNet7RakPeer13SendImmediateEPcj14PacketPriority17PacketReliabilitycNS_13AddressOrGUIDEbbyj @3577
    _ZN6RakNet7RakPeer13SendOutOfBandEPKctS2_jj @3578
    _ZN6RakNet7RakPeer13SetInternalIDENS_13SystemAddressEi @3579
    _ZN6RakNet7RakPeer14AllocatePacketEj @3580
    _ZN6RakNet7RakPeer14GetAveragePingENS_13AddressOrGUIDE @3581
    _ZN6RakNet7RakPeer14GetTimeoutTimeENS_13SystemAddressE @3582
    _ZN6RakNet7RakPeer14PushBackPacketEPNS_6PacketEb @3583
    _ZN6RakNet7RakPeer14ReleaseSocketsERN14DataStructures4ListIPNS_13RakNetSocket2EEE @3584
    _ZN6RakNet7RakPeer14RunUpdateCycleERNS_9BitStreamE @3585
    _ZN6RakNet7RakPeer14SetTimeoutTimeEjNS_13SystemAddressE @3586
    _ZN6RakNet7RakPeer15AdvertiseSystemEPKctS2_ij @3587
    _ZN6RakNet7RakPeer15CloseConnectionENS_13AddressOrGUIDEbh14PacketPriority @3588
    _ZN6RakNet7RakPeer15DerefAllSocketsEv @3589
    _ZN6RakNet7RakPeer15DisableSecurityEv @3590
    _ZN6RakNet7RakPeer15OnConnectedPongEyyPNS0_18RemoteSystemStructE @3591
    _ZN6RakNet7RakPeer16DeallocatePacketEPNS_6PacketE @3592
    _ZN6RakNet7RakPeer16GetGUIDFromIndexEj @3593
    _ZN6RakNet7RakPeer16GetIndexFromGuidENS_10RakNetGUIDE @3594
    _ZN6RakNet7RakPeer16ResetSendReceiptEv @3595
    _ZN6RakNet7RakPeer16SendBufferedListEPPKcPKii14PacketPriority17PacketReliabilitycNS_13AddressOrGUIDEbNS0_18RemoteSystemStruct11ConnectModeEj @3596
    _ZN6RakNet7RakPeer17ConnectWithSocketEPKctS2_iPNS_13RakNetSocket2EPNS_9PublicKeyEjjj @3597
    _ZN6RakNet7RakPeer17GetMyBoundAddressEi @3598
    _ZN6RakNet7RakPeer17GetStatisticsListERN14DataStructures4ListINS_13SystemAddressEEERNS2_INS_10RakNetGUIDEEERNS2_INS_16RakNetStatisticsEEE @3599
    _ZN6RakNet7RakPeer17PopBufferedPacketEv @3600
    _ZN6RakNet7RakPeer17RemoveFromBanListEPKc @3601
    _ZN6RakNet7RakPeer17SetOccasionalPingEb @3602
    _ZN6RakNet7RakPeer17SocketQueryOutputC1Ev @3603
    _ZN6RakNet7RakPeer17SocketQueryOutputD1Ev @3604
    _ZN6RakNet7RakPeer18GetConnectionStateENS_13AddressOrGUIDE @3605
    _ZN6RakNet7RakPeer18GetNextSendReceiptEv @3606
    _ZN6RakNet7RakPeer18InitializeSecurityEPKcS2_b @3607
    _ZN6RakNet7RakPeer18PushBufferedPacketEPNS_14RNS2RecvStructE @3608
    _ZN6RakNet7RakPeer18RemoteSystemStructC1Ev @3609
    _ZN6RakNet7RakPeer18RemoteSystemStructD1Ev @3610
    _ZN6RakNet7RakPeer19AddPacketToProducerEPNS_6PacketE @3611
    _ZN6RakNet7RakPeer19AllocRNS2RecvStructEPKcj @3612
    _ZN6RakNet7RakPeer19CallPluginCallbacksERN14DataStructures4ListIPNS_16PluginInterface2EEEPNS_6PacketE @3613
    _ZN6RakNet7RakPeer19ChangeSystemAddressENS_10RakNetGUIDERKNS_13SystemAddressE @3614
    _ZN6RakNet7RakPeer19GetIncomingPasswordEPcPi @3615
    _ZN6RakNet7RakPeer19OnConnectionRequestEPNS0_18RemoteSystemStructEy @3616
    _ZN6RakNet7RakPeer19SetIncomingPasswordEPKci @3617
    _ZN6RakNet7RakPeer19SetUserUpdateThreadEPFvPNS_16RakPeerInterfaceEPvES3_ @3618
    _ZN6RakNet7RakPeer20ClearBufferedPacketsEv @3619
    _ZN6RakNet7RakPeer20GenerateSeedFromGuidEv @3620
    _ZN6RakNet7RakPeer20GetClockDifferentialENS_13AddressOrGUIDE @3621
    _ZN6RakNet7RakPeer20GetNumberOfAddressesEv @3622
    _ZN6RakNet7RakPeer20GetReceiveBufferSizeEv @3623
    _ZN6RakNet7RakPeer20SetUnreliableTimeoutEj @3624
    _ZN6RakNet7RakPeer20SetupBufferedPacketsEv @3625
    _ZN6RakNet7RakPeer20WriteOutOfBandHeaderEPNS_9BitStreamE @3626
    _ZN6RakNet7RakPeer21AddToActiveSystemListEj @3627
    _ZN6RakNet7RakPeer21ApplyNetworkSimulatorEftt @3628
    _ZN6RakNet7RakPeer21BufferedCommandStructC1Ev @3629
    _ZN6RakNet7RakPeer21ClearBufferedCommandsEv @3630
    _ZN6RakNet7RakPeer21DeallocRNS2RecvStructEPNS_14RNS2RecvStructEPKcj @3631
    _ZN6RakNet7RakPeer21ReferenceRemoteSystemERKNS_13SystemAddressEj @3632
    _ZN6RakNet7RakPeer21SendConnectionRequestEPKctS2_iPNS_9PublicKeyEjjjjj @3633
    _ZN6RakNet7RakPeer21SendConnectionRequestEPKctS2_iPNS_9PublicKeyEjjjjjPNS_13RakNetSocket2E @3634
    _ZN6RakNet7RakPeer22ClearSocketQueryOutputEv @3635
    _ZN6RakNet7RakPeer22GetOfflinePingResponseEPPcPj @3636
    _ZN6RakNet7RakPeer22SetOfflinePingResponseEPKcj @3637
    _ZN6RakNet7RakPeer23CancelConnectionAttemptENS_13SystemAddressE @3638
    _ZN6RakNet7RakPeer23ClearRemoteSystemLookupEv @3639
    _ZN6RakNet7RakPeer23CloseConnectionInternalERKNS_13AddressOrGUIDEbbh14PacketPriority @3640
    _ZN6RakNet7RakPeer23DereferenceRemoteSystemERKNS_13SystemAddressE @3641
    _ZN6RakNet7RakPeer24IncrementNextSendReceiptEv @3642
    _ZN6RakNet7RakPeer24IsNetworkSimulatorActiveEv @3643
    _ZN6RakNet7RakPeer24NotifyAndFlagForShutdownENS_13SystemAddressEbh14PacketPriority @3644
    _ZN6RakNet7RakPeer25GetSystemAddressFromIndexEj @3645
    _ZN6RakNet7RakPeer25IsInSecurityExceptionListEPKc @3646
    _ZN6RakNet7RakPeer25RequestedConnectionStructC1Ev @3647
    _ZN6RakNet7RakPeer26AddToSecurityExceptionListEPKc @3648
    _ZN6RakNet7RakPeer26RemoveFromActiveSystemListERKNS_13SystemAddressE @3649
    _ZN6RakNet7RakPeer28ClearRequestedConnectionListEv @3650
    _ZN6RakNet7RakPeer28ParseConnectionRequestPacketEPNS0_18RemoteSystemStructERKNS_13SystemAddressEPKci @3651
    _ZN6RakNet7RakPeer29SetLimitIPConnectionFrequencyEb @3652
    _ZN6RakNet7RakPeer29SetMaximumIncomingConnectionsEt @3653
    _ZN6RakNet7RakPeer31RemoveFromSecurityExceptionListEPKc @3654
    _ZN6RakNet7RakPeer31SetIncomingDatagramEventHandlerEPFbPNS_14RNS2RecvStructEE @3655
    _ZN6RakNet7RakPeer31SetSplitMessageProgressIntervalEi @3656
    _ZN6RakNet7RakPeer34AllowConnectionResponseIPMigrationEb @3657
    _ZN6RakNet7RakPeer37AssignSystemAddressToRemoteSystemListENS_13SystemAddressENS0_18RemoteSystemStruct11ConnectModeEPNS_13RakNetSocket2EPbS1_iNS_10RakNetGUIDEb @3658
    _ZN6RakNet7RakPeer38SetPerConnectionOutgoingBandwidthLimitEj @3659
    _ZN6RakNet7RakPeer4PingENS_13SystemAddressE @3660
    _ZN6RakNet7RakPeer4PingEPKctbj @3661
    _ZN6RakNet7RakPeer4SendEPKNS_9BitStreamE14PacketPriority17PacketReliabilitycNS_13AddressOrGUIDEbj @3662
    _ZN6RakNet7RakPeer4SendEPKci14PacketPriority17PacketReliabilitycNS_13AddressOrGUIDEbj @3663
    _ZN6RakNet7RakPeer7ConnectEPKctS2_iPNS_9PublicKeyEjjjj @3664
    _ZN6RakNet7RakPeer7ReceiveEv @3665
    _ZN6RakNet7RakPeer7SendTTLEPKctij @3666
    _ZN6RakNet7RakPeer7StartupEjPNS_16SocketDescriptorEji @3667
    _ZN6RakNet7RakPeer8IsBannedEPKc @3668
    _ZN6RakNet7RakPeer8SendListEPPKcPKii14PacketPriority17PacketReliabilitycNS_13AddressOrGUIDEbj @3669
    _ZN6RakNet7RakPeer8ShutdownEjh14PacketPriority @3670
    _ZN6RakNet7RakPeer9GetSocketENS_13SystemAddressE @3671
    _ZN6RakNet7RakPeer9IsLocalIPEPKc @3672
    _ZN6RakNet7RakPeerC1Ev @3673
    _ZN6RakNet7RakPeerC2Ev @3674
    _ZN6RakNet7RakPeerD0Ev @3675
    _ZN6RakNet7RakPeerD1Ev @3676
    _ZN6RakNet7RakPeerD2Ev @3677
    _ZN6RakNet7Router210OnReroutedEPNS_6PacketE @3678
    _ZN6RakNet7Router211GetInstanceEv @3679
    _ZN6RakNet7Router212ReturnToUserEhNS_10RakNetGUIDERKNS_13SystemAddressEb @3680
    _ZN6RakNet7Router215ConnectInternalENS_10RakNetGUIDEb @3681
    _ZN6RakNet7Router215ConnnectRequest12GetGuidIndexENS_10RakNetGUIDE @3682
    _ZN6RakNet7Router215ConnnectRequestC1Ev @3683
    _ZN6RakNet7Router215ConnnectRequestC2Ev @3684
    _ZN6RakNet7Router215ConnnectRequestD1Ev @3685
    _ZN6RakNet7Router215ConnnectRequestD2Ev @3686
    _ZN6RakNet7Router215DestroyInstanceEPS0_ @3687
    _ZN6RakNet7Router215SendOOBMessagesEPNS0_16MiniPunchRequestE @3688
    _ZN6RakNet7Router215SetSocketFamilyEt @3689
    _ZN6RakNet7Router216ClearMinipunchesEv @3690
    _ZN6RakNet7Router216EstablishRoutingENS_10RakNetGUIDE @3691
    _ZN6RakNet7Router216MiniPunchRequestC1Ev @3692
    _ZN6RakNet7Router216MiniPunchRequestaSERKS1_ @3693
    _ZN6RakNet7Router216OnMiniPunchReplyEPNS_6PacketE @3694
    _ZN6RakNet7Router216UpdateForwardingEPNS0_15ConnnectRequestE @3695
    _ZN6RakNet7Router217OnQueryForwardingEPNS_6PacketE @3696
    _ZN6RakNet7Router217OnRakPeerShutdownEv @3697
    _ZN6RakNet7Router217RequestForwardingEPNS0_15ConnnectRequestE @3698
    _ZN6RakNet7Router217SetDebugInterfaceEPNS_21Router2DebugInterfaceE @3699
    _ZN6RakNet7Router218OnClosedConnectionERKNS_13SystemAddressENS_10RakNetGUIDENS_24PI2_LostConnectionReasonE @3700
    _ZN6RakNet7Router219ForwardedConnectionC1Ev @3701
    _ZN6RakNet7Router219ForwardedConnectionaSERKS1_ @3702
    _ZN6RakNet7Router219OnForwardingSuccessEPNS_6PacketE @3703
    _ZN6RakNet7Router219OnRequestForwardingEPNS_6PacketE @3704
    _ZN6RakNet7Router221SendForwardingSuccessEhNS_10RakNetGUIDES1_t @3705
    _ZN6RakNet7Router221SendOOBFromRakNetPortE20OutOfBandIdentifiersPNS_9BitStreamENS_13SystemAddressE @3706
    _ZN6RakNet7Router222OnMiniPunchReplyBounceEPNS_6PacketE @3707
    _ZN6RakNet7Router222OnQueryForwardingReplyEPNS_6PacketE @3708
    _ZN6RakNet7Router223ClearConnectionRequestsEv @3709
    _ZN6RakNet7Router223ConnectionRequestSystemC1Ev @3710
    _ZN6RakNet7Router223ConnectionRequestSystemaSERKS1_ @3711
    _ZN6RakNet7Router223RemoveConnectionRequestEj @3712
    _ZN6RakNet7Router225ClearForwardedConnectionsEv @3713
    _ZN6RakNet7Router225GetConnectionRequestIndexENS_10RakNetGUIDE @3714
    _ZN6RakNet7Router225OnFailedConnectionAttemptEPNS_6PacketENS_33PI2_FailedConnectionAttemptReasonE @3715
    _ZN6RakNet7Router226SendFailureOnCannotForwardENS_10RakNetGUIDES1_ @3716
    _ZN6RakNet7Router226SendOOBFromSpecifiedSocketE20OutOfBandIdentifiersNS_13SystemAddressEj @3717
    _ZN6RakNet7Router228ReturnFailureOnCannotForwardENS_10RakNetGUIDES1_ @3718
    _ZN6RakNet7Router228SetMaximumForwardingRequestsEi @3719
    _ZN6RakNet7Router26UpdateEv @3720
    _ZN6RakNet7Router28ClearAllEv @3721
    _ZN6RakNet7Router29OnReceiveEPNS_6PacketE @3722
    _ZN6RakNet7Router2C1Ev @3723
    _ZN6RakNet7Router2C2Ev @3724
    _ZN6RakNet7Router2D0Ev @3725
    _ZN6RakNet7Router2D1Ev @3726
    _ZN6RakNet7Router2D2Ev @3727
    _ZN6RakNet7TM_Team11GetInstanceEv @3728
    _ZN6RakNet7TM_Team14SetMemberLimitEth @3729
    _ZN6RakNet7TM_Team15DestroyInstanceEPS0_ @3730
    _ZN6RakNet7TM_Team18SetJoinPermissionsEh @3731
    _ZN6RakNet7TM_Team21SerializeConstructionEPNS_9BitStreamE @3732
    _ZN6RakNet7TM_Team23DeserializeConstructionEPNS_11TeamManagerEPNS_9BitStreamE @3733
    _ZN6RakNet7TM_Team24RemoveFromTeamMemberListEPNS_13TM_TeamMemberE @3734
    _ZN6RakNet7TM_Team38GetMemberWithRequestedSingleTeamSwitchEPS0_ @3735
    _ZN6RakNet7TM_Team8SetOwnerEPv @3736
    _ZN6RakNet7TM_Team8ToUint32ERKy @3737
    _ZN6RakNet7TM_Team9LeaveTeamEPNS_13TM_TeamMemberEh @3738
    _ZN6RakNet7TM_TeamC1Ev @3739
    _ZN6RakNet7TM_TeamC2Ev @3740
    _ZN6RakNet7TM_TeamD0Ev @3741
    _ZN6RakNet7TM_TeamD1Ev @3742
    _ZN6RakNet7TM_TeamD2Ev @3743
    _ZN6RakNet8CloudKey9SerializeEbPNS_9BitStreamE @3744
    _ZN6RakNet8CloudKeyC1ERKS0_ @3745
    _ZN6RakNet8CloudKeyC1Ev @3746
    _ZN6RakNet8CloudKeyD1Ev @3747
    _ZN6RakNet8CloudKeyaSERKS0_ @3748
    _ZN6RakNet8FileList11AddCallbackEPNS_16FileListProgressE @3749
    _ZN6RakNet8FileList11DeleteFilesEPKc @3750
    _ZN6RakNet8FileList11DeserializeEPNS_9BitStreamE @3751
    _ZN6RakNet8FileList11GetInstanceEv @3752
    _ZN6RakNet8FileList12GetCallbacksERN14DataStructures4ListIPNS_16FileListProgressEEE @3753
    _ZN6RakNet8FileList14ClearCallbacksEv @3754
    _ZN6RakNet8FileList14FixEndingSlashEPc @3755
    _ZN6RakNet8FileList14RemoveCallbackEPNS_16FileListProgressE @3756
    _ZN6RakNet8FileList15DestroyInstanceEPS0_ @3757
    _ZN6RakNet8FileList15WriteDataToDiskEPKc @3758
    _ZN6RakNet8FileList17GetDeltaToCurrentEPS0_S1_PKcS3_ @3759
    _ZN6RakNet8FileList20PopulateDataFromDiskEPKcbbb @3760
    _ZN6RakNet8FileList21AddFilesFromDirectoryEPKcS2_bbb19FileListNodeContext @3761
    _ZN6RakNet8FileList21FlagFilesAsReferencesEv @3762
    _ZN6RakNet8FileList25ListMissingOrChangedFilesEPKcPS0_bb @3763
    _ZN6RakNet8FileList5ClearEv @3764
    _ZN6RakNet8FileList7AddFileEPKcS2_19FileListNodeContext @3765
    _ZN6RakNet8FileList7AddFileEPKcS2_S2_jj19FileListNodeContextbb @3766
    _ZN6RakNet8FileList9SerializeEPNS_9BitStreamE @3767
    _ZN6RakNet8FileListC1Ev @3768
    _ZN6RakNet8FileListC2Ev @3769
    _ZN6RakNet8FileListD1Ev @3770
    _ZN6RakNet8FileListD2Ev @3771
    _ZN6RakNet8LessThanEyy @3772
    _ZN6RakNet8OP_NEW_2IN14DataStructures4HashINS_10RakNetGUIDEPNS_11CloudServer17RemoteCloudClientELj2048EXadL_ZNS3_8ToUint32ERKS3_EEE4NodeES3_S6_EEPT_PKcjRKT0_RKT1_ @3773
    _ZN6RakNet8OP_NEW_2IN14DataStructures4HashINS_10RakNetGUIDEPNS_11RelayPlugin17StrAndGuidAndRoomELj8096EXadL_ZNS3_8ToUint32ERKS3_EEE4NodeES3_S6_EEPT_PKcjRKT0_RKT1_ @3774
    _ZN6RakNet8OP_NEW_2IN14DataStructures4HashINS_13AddressOrGUIDENS_14FilteredSystemELj2048EXadL_ZNS3_9ToIntegerERKS3_EEE4NodeES3_S4_EEPT_PKcjRKT0_RKT1_ @3775
    _ZN6RakNet8OP_NEW_2IN14DataStructures4HashINS_9RakStringEPFvPNS_9BitStreamEPNS_6PacketEELj64EXadL_ZNS3_9ToIntegerERKS3_EEE4NodeES3_S9_EEPT_PKcjRKT0_RKT1_ @3776
    _ZN6RakNet8OP_NEW_2IN14DataStructures4HashINS_9RakStringEPFvPNS_9BitStreamES5_PNS_6PacketEELj64EXadL_ZNS3_9ToIntegerERKS3_EEE4NodeES3_S9_EEPT_PKcjRKT0_RKT1_ @3777
    _ZN6RakNet8OP_NEW_2IN14DataStructures4HashINS_9RakStringEPNS_11RelayPlugin17StrAndGuidAndRoomELj8096EXadL_ZNS3_9ToIntegerERKS3_EEE4NodeES3_S6_EEPT_PKcjRKT0_RKT1_ @3778
    _ZN6RakNet8OP_NEW_2IN14DataStructures4HashINS_9RakStringEPNS_17StatisticsHistory17TimeAndValueQueueELj32EXadL_ZNS3_9ToIntegerERKS3_EEE4NodeES3_S6_EEPT_PKcjRKT0_RKT1_ @3779
    _ZN6RakNet8OP_NEW_2IN14DataStructures4HashINS_9RakStringEPNS_4RPC49LocalSlotELj256EXadL_ZNS3_9ToIntegerERKS3_EEE4NodeES3_S6_EEPT_PKcjRKT0_RKT1_ @3780
    _ZN6RakNet8OP_NEW_2IN14DataStructures4HashINS_9RakStringES3_Lj16EXadL_ZNS3_9ToIntegerERKS3_EEE4NodeES3_S3_EEPT_PKcjRKT0_RKT1_ @3781
    _ZN6RakNet8OP_NEW_2IN14DataStructures4HashIyPNS_13TM_TeamMemberELj256EXadL_ZNS3_8ToUint32ERKyEEE4NodeEyS4_EEPT_PKcjRKT0_RKT1_ @3782
    _ZN6RakNet8OP_NEW_2IN14DataStructures4HashIyPNS_7TM_TeamELj256EXadL_ZNS3_8ToUint32ERKyEEE4NodeEyS4_EEPT_PKcjRKT0_RKT1_ @3783
    _ZN6RakNet8OP_NEW_4IN14DataStructures5Table4CellEdPcPvNS2_10ColumnTypeEEEPT_PKcjRKT0_RKT1_RKT2_RKT3_ @3784
    _ZN6RakNet8Replica314PreDestructionEPNS_14Connection_RM3E @3785
    _ZN6RakNet8Replica316QueryDestructionEPNS_14Connection_RM3EPNS_15ReplicaManager3E @3786
    _ZN6RakNet8Replica318OnPoppedConnectionEPNS_14Connection_RM3E @3787
    _ZN6RakNet8Replica320BroadcastDestructionEv @3788
    _ZN6RakNet8Replica323OnSerializeTransmissionEPNS_9BitStreamEPNS_14Connection_RM3EPjy @3789
    _ZN6RakNet8Replica325PostSerializeConstructionEPNS_9BitStreamEPNS_14Connection_RM3E @3790
    _ZN6RakNet8Replica327PostDeserializeConstructionEPNS_9BitStreamEPNS_14Connection_RM3E @3791
    _ZN6RakNet8Replica328QueryConstruction_PeerToPeerEPNS_14Connection_RM3ENS_15Replica3P2PModeE @3792
    _ZN6RakNet8Replica329OnUserReplicaPreSerializeTickEv @3793
    _ZN6RakNet8Replica329QuerySerialization_PeerToPeerEPNS_14Connection_RM3ENS_15Replica3P2PModeE @3794
    _ZN6RakNet8Replica329SerializeConstructionExistingEPNS_9BitStreamEPNS_14Connection_RM3E @3795
    _ZN6RakNet8Replica331DeserializeConstructionExistingEPNS_9BitStreamEPNS_14Connection_RM3E @3796
    _ZN6RakNet8Replica333PostSerializeConstructionExistingEPNS_9BitStreamEPNS_14Connection_RM3E @3797
    _ZN6RakNet8Replica334QueryRemoteConstruction_PeerToPeerEPNS_14Connection_RM3E @3798
    _ZN6RakNet8Replica335PostDeserializeConstructionExistingEPNS_9BitStreamEPNS_14Connection_RM3E @3799
    _ZN6RakNet8Replica336QueryConstruction_ClientConstructionEPNS_14Connection_RM3Eb @3800
    _ZN6RakNet8Replica336QueryConstruction_ServerConstructionEPNS_14Connection_RM3Eb @3801
    _ZN6RakNet8Replica337QuerySerialization_ClientSerializableEPNS_14Connection_RM3Eb @3802
    _ZN6RakNet8Replica337QuerySerialization_ServerSerializableEPNS_14Connection_RM3Eb @3803
    _ZN6RakNet8Replica342QueryRemoteConstruction_ClientConstructionEPNS_14Connection_RM3Eb @3804
    _ZN6RakNet8Replica342QueryRemoteConstruction_ServerConstructionEPNS_14Connection_RM3Eb @3805
    _ZN6RakNet8Replica3C1Ev @3806
    _ZN6RakNet8Replica3C2Ev @3807
    _ZN6RakNet8Replica3D0Ev @3808
    _ZN6RakNet8Replica3D1Ev @3809
    _ZN6RakNet8Replica3D2Ev @3810
    _ZN6RakNet8TM_World11JoinAnyTeamEPNS_13TM_TeamMemberEPi @3811
    _ZN6RakNet8TM_World13ReferenceTeamEPNS_7TM_TeamEyb @3812
    _ZN6RakNet8TM_World14AddParticipantENS_10RakNetGUIDE @3813
    _ZN6RakNet8TM_World15DereferenceTeamEPNS_7TM_TeamEh @3814
    _ZN6RakNet8TM_World15OnNewConnectionERKNS_13SystemAddressENS_10RakNetGUIDEb @3815
    _ZN6RakNet8TM_World15SetBalanceTeamsEbh @3816
    _ZN6RakNet8TM_World16JoinSpecificTeamEPNS_13TM_TeamMemberEPNS_7TM_TeamEbS4_RN14DataStructures4ListIS4_EE @3817
    _ZN6RakNet8TM_World17KickExcessMembersEh @3818
    _ZN6RakNet8TM_World17RemoveParticipantENS_10RakNetGUIDE @3819
    _ZN6RakNet8TM_World18EnforceTeamBalanceEh @3820
    _ZN6RakNet8TM_World18FillRequestedSlotsEv @3821
    _ZN6RakNet8TM_World18GetParticipantListERN14DataStructures4ListINS_10RakNetGUIDEEE @3822
    _ZN6RakNet8TM_World18GetTeamByNetworkIDEy @3823
    _ZN6RakNet8TM_World18OnClosedConnectionERKNS_13SystemAddressENS_10RakNetGUIDENS_24PI2_LostConnectionReasonE @3824
    _ZN6RakNet8TM_World19ReferenceTeamMemberEPNS_13TM_TeamMemberEy @3825
    _ZN6RakNet8TM_World21DereferenceTeamMemberEPNS_13TM_TeamMemberE @3826
    _ZN6RakNet8TM_World21GetSortedJoinRequestsERN14DataStructures11OrderedListINS0_17JoinRequestHelperES3_XadL_ZNS0_21JoinRequestHelperCompERKS3_S5_EEEE @3827
    _ZN6RakNet8TM_World21JoinRequestHelperCompERKNS0_17JoinRequestHelperES3_ @3828
    _ZN6RakNet8TM_World23BroadcastToParticipantsEPNS_9BitStreamENS_10RakNetGUIDE @3829
    _ZN6RakNet8TM_World23BroadcastToParticipantsEPhiNS_10RakNetGUIDE @3830
    _ZN6RakNet8TM_World24GetTeamMemberByNetworkIDEy @3831
    _ZN6RakNet8TM_World24SetAutoManageConnectionsEb @3832
    _ZN6RakNet8TM_World38GetAvailableTeamIndexWithFewestMembersEth @3833
    _ZN6RakNet8TM_World5ClearEv @3834
    _ZN6RakNet8TM_World7SetHostENS_10RakNetGUIDE @3835
    _ZN6RakNet8TM_WorldC1Ev @3836
    _ZN6RakNet8TM_WorldC2Ev @3837
    _ZN6RakNet8TM_WorldD0Ev @3838
    _ZN6RakNet8TM_WorldD1Ev @3839
    _ZN6RakNet8TM_WorldD2Ev @3840
    _ZN6RakNet8_RakFreeEPv @3841
    _ZN6RakNet8uint24_tC1ERKS0_ @3842
    _ZN6RakNet8uint24_tC1ERKj @3843
    _ZN6RakNet8uint24_tC1Ev @3844
    _ZN6RakNet8uint24_taSERKS0_ @3845
    _ZN6RakNet8uint24_taSERKj @3846
    _ZN6RakNet8uint24_tanERKj @3847
    _ZN6RakNet8uint24_tcvjEv @3848
    _ZN6RakNet8uint24_tmmEi @3849
    _ZN6RakNet8uint24_tppEi @3850
    _ZN6RakNet8uint24_tppEv @3851
    _ZN6RakNet9BitStream10IgnoreBitsEj @3852
    _ZN6RakNet9BitStream10ReadCastedIhNS_19FullyConnectedMesh219JoinInProgressStateEEEbRT0_ @3853
    _ZN6RakNet9BitStream10ReadCastedItjEEbRT0_ @3854
    _ZN6RakNet9BitStream11GetInstanceEv @3855
    _ZN6RakNet9BitStream11IgnoreBytesEj @3856
    _ZN6RakNet9BitStream11IsBigEndianEv @3857
    _ZN6RakNet9BitStream11ReadFloat16ERfff @3858
    _ZN6RakNet9BitStream11WriteCastedIh14PacketPriorityEEvRKT0_ @3859
    _ZN6RakNet9BitStream11WriteCastedIh17PacketReliabilityEEvRKT0_ @3860
    _ZN6RakNet9BitStream11WriteCastedIh21DefaultMessageIDTypesEEvRKT0_ @3861
    _ZN6RakNet9BitStream11WriteCastedIh21TeamManagerOperationsEEvRKT0_ @3862
    _ZN6RakNet9BitStream11WriteCastedIhNS_16RelayPluginEnumsEEEvRKT0_ @3863
    _ZN6RakNet9BitStream11WriteCastedIhNS_19FullyConnectedMesh219JoinInProgressStateEEEvRKT0_ @3864
    _ZN6RakNet9BitStream11WriteCastedIhiEEvRKT0_ @3865
    _ZN6RakNet9BitStream11WriteCastedIhjEEvRKT0_ @3866
    _ZN6RakNet9BitStream11WriteCastedIjjEEvRKT0_ @3867
    _ZN6RakNet9BitStream11WriteCastedItiEEvRKT0_ @3868
    _ZN6RakNet9BitStream11WriteCastedItjEEvRKT0_ @3869
    _ZN6RakNet9BitStream11WriteCastedIttEEvRKT0_ @3870
    _ZN6RakNet9BitStream12DoEndianSwapEv @3871
    _ZN6RakNet9BitStream12ReverseBytesEPhS1_j @3872
    _ZN6RakNet9BitStream12WriteFloat16Efff @3873
    _ZN6RakNet9BitStream13SetReadOffsetEj @3874
    _ZN6RakNet9BitStream14AssertCopyDataEv @3875
    _ZN6RakNet9BitStream14IsNetworkOrderEv @3876
    _ZN6RakNet9BitStream14ReadCompressedEPhjb @3877
    _ZN6RakNet9BitStream14ReadCompressedINS_9RakStringEEEbRT_ @3878
    _ZN6RakNet9BitStream14ReadCompressedIhEEbRT_ @3879
    _ZN6RakNet9BitStream14ReadCompressedIjEEbRT_ @3880
    _ZN6RakNet9BitStream14SetWriteOffsetEj @3881
    _ZN6RakNet9BitStream15DestroyInstanceEPS0_ @3882
    _ZN6RakNet9BitStream15EndianSwapBytesEii @3883
    _ZN6RakNet9BitStream15ReadAlignedVar8EPc @3884
    _ZN6RakNet9BitStream15WriteCompressedEPKc @3885
    _ZN6RakNet9BitStream15WriteCompressedEPKhjb @3886
    _ZN6RakNet9BitStream15WriteCompressedINS_9RakStringEEEvRKT_ @3887
    _ZN6RakNet9BitStream15WriteCompressedIhEEvRKT_ @3888
    _ZN6RakNet9BitStream15WriteCompressedIjEEvRKT_ @3889
    _ZN6RakNet9BitStream16ReadAlignedBytesEPhj @3890
    _ZN6RakNet9BitStream16ReadAlignedVar16EPc @3891
    _ZN6RakNet9BitStream16ReadAlignedVar32EPc @3892
    _ZN6RakNet9BitStream16ResetReadPointerEv @3893
    _ZN6RakNet9BitStream16SerializeFloat16EbRfff @3894
    _ZN6RakNet9BitStream16WriteAlignedVar8EPKc @3895
    _ZN6RakNet9BitStream17AssertStreamEmptyEv @3896
    _ZN6RakNet9BitStream17ResetWritePointerEv @3897
    _ZN6RakNet9BitStream17WriteAlignedBytesEPKhj @3898
    _ZN6RakNet9BitStream17WriteAlignedVar16EPKc @3899
    _ZN6RakNet9BitStream17WriteAlignedVar32EPKc @3900
    _ZN6RakNet9BitStream19ReverseBytesInPlaceEPhj @3901
    _ZN6RakNet9BitStream20AddBitsAndReallocateEj @3902
    _ZN6RakNet9BitStream20ReadAlignedBytesSafeEPcRii @3903
    _ZN6RakNet9BitStream20ReadAlignedBytesSafeEPcRjj @3904
    _ZN6RakNet9BitStream21NumberOfLeadingZeroesEa @3905
    _ZN6RakNet9BitStream21NumberOfLeadingZeroesEh @3906
    _ZN6RakNet9BitStream21NumberOfLeadingZeroesEi @3907
    _ZN6RakNet9BitStream21NumberOfLeadingZeroesEj @3908
    _ZN6RakNet9BitStream21NumberOfLeadingZeroesEs @3909
    _ZN6RakNet9BitStream21NumberOfLeadingZeroesEt @3910
    _ZN6RakNet9BitStream21NumberOfLeadingZeroesEx @3911
    _ZN6RakNet9BitStream21NumberOfLeadingZeroesEy @3912
    _ZN6RakNet9BitStream21WriteAlignedBytesSafeEPKcjj @3913
    _ZN6RakNet9BitStream22IsNetworkOrderInternalEv @3914
    _ZN6RakNet9BitStream23AlignReadToByteBoundaryEv @3915
    _ZN6RakNet9BitStream23PadWithZeroToByteLengthEj @3916
    _ZN6RakNet9BitStream24AlignWriteToByteBoundaryEv @3917
    _ZN6RakNet9BitStream24SetNumberOfBitsAllocatedEj @3918
    _ZN6RakNet9BitStream25ReadAlignedBytesSafeAllocEPPcRij @3919
    _ZN6RakNet9BitStream25ReadAlignedBytesSafeAllocEPPcRjj @3920
    _ZN6RakNet9BitStream4ReadEPS0_ @3921
    _ZN6RakNet9BitStream4ReadEPS0_j @3922
    _ZN6RakNet9BitStream4ReadEPc @3923
    _ZN6RakNet9BitStream4ReadEPcj @3924
    _ZN6RakNet9BitStream4ReadEPh @3925
    _ZN6RakNet9BitStream4ReadERS0_ @3926
    _ZN6RakNet9BitStream4ReadERS0_j @3927
    _ZN6RakNet9BitStream4ReadINS_10RakNetGUIDEEEbRT_ @3928
    _ZN6RakNet9BitStream4ReadINS_12JoinTeamTypeEEEbRT_ @3929
    _ZN6RakNet9BitStream4ReadINS_13SystemAddressEEEbRT_ @3930
    _ZN6RakNet9BitStream4ReadINS_8uint24_tEEEbRT_ @3931
    _ZN6RakNet9BitStream4ReadINS_9RakStringEEEbRT_ @3932
    _ZN6RakNet9BitStream4ReadIPvEEbRT_ @3933
    _ZN6RakNet9BitStream4ReadIbEEbRT_ @3934
    _ZN6RakNet9BitStream4ReadIcEEbRT_ @3935
    _ZN6RakNet9BitStream4ReadIdEEbRT_ @3936
    _ZN6RakNet9BitStream4ReadIfEEbRT_ @3937
    _ZN6RakNet9BitStream4ReadIhEEbRT_ @3938
    _ZN6RakNet9BitStream4ReadIiEEbRT_ @3939
    _ZN6RakNet9BitStream4ReadIjEEbRT_ @3940
    _ZN6RakNet9BitStream4ReadItEEbRT_ @3941
    _ZN6RakNet9BitStream4ReadIxEEbRT_ @3942
    _ZN6RakNet9BitStream4ReadIyEEbRT_ @3943
    _ZN6RakNet9BitStream5ResetEv @3944
    _ZN6RakNet9BitStream5WriteEPKcj @3945
    _ZN6RakNet9BitStream5WriteEPS0_ @3946
    _ZN6RakNet9BitStream5WriteEPS0_j @3947
    _ZN6RakNet9BitStream5WriteERS0_ @3948
    _ZN6RakNet9BitStream5WriteERS0_j @3949
    _ZN6RakNet9BitStream5WriteINS_10RakNetGUIDEEEvRKT_ @3950
    _ZN6RakNet9BitStream5WriteINS_12JoinTeamTypeEEEvRKT_ @3951
    _ZN6RakNet9BitStream5WriteINS_13SystemAddressEEEvRKT_ @3952
    _ZN6RakNet9BitStream5WriteINS_8uint24_tEEEvRKT_ @3953
    _ZN6RakNet9BitStream5WriteINS_9RakStringEEEvRKT_ @3954
    _ZN6RakNet9BitStream5WriteIPvEEvRKT_ @3955
    _ZN6RakNet9BitStream5WriteIbEEvRKT_ @3956
    _ZN6RakNet9BitStream5WriteIcEEvRKT_ @3957
    _ZN6RakNet9BitStream5WriteIdEEvRKT_ @3958
    _ZN6RakNet9BitStream5WriteIfEEvRKT_ @3959
    _ZN6RakNet9BitStream5WriteIhEEvRKT_ @3960
    _ZN6RakNet9BitStream5WriteIiEEvRKT_ @3961
    _ZN6RakNet9BitStream5WriteIjEEvRKT_ @3962
    _ZN6RakNet9BitStream5WriteItEEvRKT_ @3963
    _ZN6RakNet9BitStream5WriteIxEEvRKT_ @3964
    _ZN6RakNet9BitStream5WriteIyEEvRKT_ @3965
    _ZN6RakNet9BitStream6Write0Ev @3966
    _ZN6RakNet9BitStream6Write1Ev @3967
    _ZN6RakNet9BitStream7ReadBitEv @3968
    _ZN6RakNet9BitStream7SetDataEPh @3969
    _ZN6RakNet9BitStream8ReadBitsEPhjb @3970
    _ZN6RakNet9BitStream9SerializeINS_10RakNetGUIDEEEbbRT_ @3971
    _ZN6RakNet9BitStream9SerializeINS_13SystemAddressEEEbbRT_ @3972
    _ZN6RakNet9BitStream9SerializeINS_9RakStringEEEbbRT_ @3973
    _ZN6RakNet9BitStream9SerializeIbEEbbRT_ @3974
    _ZN6RakNet9BitStream9SerializeIjEEbbRT_ @3975
    _ZN6RakNet9BitStream9SerializeItEEbbRT_ @3976
    _ZN6RakNet9BitStream9WriteBitsEPKhjb @3977
    _ZN6RakNet9BitStreamC1EPhjb @3978
    _ZN6RakNet9BitStreamC1Ej @3979
    _ZN6RakNet9BitStreamC1Ev @3980
    _ZN6RakNet9BitStreamC2EPhjb @3981
    _ZN6RakNet9BitStreamC2Ej @3982
    _ZN6RakNet9BitStreamC2Ev @3983
    _ZN6RakNet9BitStreamD1Ev @3984
    _ZN6RakNet9BitStreamD2Ev @3985
    _ZN6RakNet9FilterSetC1Ev @3986
    _ZN6RakNet9FilterSetD1Ev @3987
    _ZN6RakNet9GetTimeMSEv @3988
    _ZN6RakNet9GetTimeUSEv @3989
    _ZN6RakNet9OP_DELETEI23HuffmanEncodingTreeNodeEEvPT_PKcj @3990
    _ZN6RakNet9OP_DELETEIN14DataStructures18CircularLinkedListIP23HuffmanEncodingTreeNodeE4nodeEEEvPT_PKcj @3991
    _ZN6RakNet9OP_DELETEIN14DataStructures4HashINS_10RakNetGUIDEPNS_11CloudServer17RemoteCloudClientELj2048EXadL_ZNS3_8ToUint32ERKS3_EEE4NodeEEEvPT_PKcj @3992
    _ZN6RakNet9OP_DELETEIN14DataStructures4HashINS_10RakNetGUIDEPNS_11RelayPlugin17StrAndGuidAndRoomELj8096EXadL_ZNS3_8ToUint32ERKS3_EEE4NodeEEEvPT_PKcj @3993
    _ZN6RakNet9OP_DELETEIN14DataStructures4HashINS_13AddressOrGUIDENS_14FilteredSystemELj2048EXadL_ZNS3_9ToIntegerERKS3_EEE4NodeEEEvPT_PKcj @3994
    _ZN6RakNet9OP_DELETEIN14DataStructures4HashINS_9RakStringEPFvPNS_9BitStreamEPNS_6PacketEELj64EXadL_ZNS3_9ToIntegerERKS3_EEE4NodeEEEvPT_PKcj @3995
    _ZN6RakNet9OP_DELETEIN14DataStructures4HashINS_9RakStringEPFvPNS_9BitStreamES5_PNS_6PacketEELj64EXadL_ZNS3_9ToIntegerERKS3_EEE4NodeEEEvPT_PKcj @3996
    _ZN6RakNet9OP_DELETEIN14DataStructures4HashINS_9RakStringEPNS_11RelayPlugin17StrAndGuidAndRoomELj8096EXadL_ZNS3_9ToIntegerERKS3_EEE4NodeEEEvPT_PKcj @3997
    _ZN6RakNet9OP_DELETEIN14DataStructures4HashINS_9RakStringEPNS_17StatisticsHistory17TimeAndValueQueueELj32EXadL_ZNS3_9ToIntegerERKS3_EEE4NodeEEEvPT_PKcj @3998
    _ZN6RakNet9OP_DELETEIN14DataStructures4HashINS_9RakStringEPNS_4RPC49LocalSlotELj256EXadL_ZNS3_9ToIntegerERKS3_EEE4NodeEEEvPT_PKcj @3999
    _ZN6RakNet9OP_DELETEIN14DataStructures4HashINS_9RakStringES3_Lj16EXadL_ZNS3_9ToIntegerERKS3_EEE4NodeEEEvPT_PKcj @4000
    _ZN6RakNet9OP_DELETEIN14DataStructures4HashIyPNS_13TM_TeamMemberELj256EXadL_ZNS3_8ToUint32ERKyEEE4NodeEEEvPT_PKcj @4001
    _ZN6RakNet9OP_DELETEIN14DataStructures4HashIyPNS_7TM_TeamELj256EXadL_ZNS3_8ToUint32ERKyEEE4NodeEEEvPT_PKcj @4002
    _ZN6RakNet9OP_DELETEIN14DataStructures5Table3RowEEEvPT_PKcj @4003
    _ZN6RakNet9OP_DELETEIN14DataStructures5Table4CellEEEvPT_PKcj @4004
    _ZN6RakNet9OP_DELETEIN14DataStructures9ByteQueueEEEvPT_PKcj @4005
    _ZN6RakNet9OP_DELETEINS_10FLP_PrintfEEEvPT_PKcj @4006
    _ZN6RakNet9OP_DELETEINS_10ReadyEvent14ReadyEventNodeEEEvPT_PKcj @4007
    _ZN6RakNet9OP_DELETEINS_10ReadyEventEEEvPT_PKcj @4008
    _ZN6RakNet9OP_DELETEINS_11CloudClientEEEvPT_PKcj @4009
    _ZN6RakNet9OP_DELETEINS_11CloudServer10GetRequestEEEvPT_PKcj @4010
    _ZN6RakNet9OP_DELETEINS_11CloudServer12RemoteServerEEEvPT_PKcj @4011
    _ZN6RakNet9OP_DELETEINS_11CloudServer13CloudDataListEEEvPT_PKcj @4012
    _ZN6RakNet9OP_DELETEINS_11CloudServer15KeySubscriberIDEEEvPT_PKcj @4013
    _ZN6RakNet9OP_DELETEINS_11CloudServer17RemoteCloudClientEEEvPT_PKcj @4014
    _ZN6RakNet9OP_DELETEINS_11CloudServer29BufferedGetResponseFromServerEEEvPT_PKcj @4015
    _ZN6RakNet9OP_DELETEINS_11CloudServer9CloudDataEEEvPT_PKcj @4016
    _ZN6RakNet9OP_DELETEINS_11EmailSenderEEEvPT_PKcj @4017
    _ZN6RakNet9OP_DELETEINS_11RelayPlugin17StrAndGuidAndRoomEEEvPT_PKcj @4018
    _ZN6RakNet9OP_DELETEINS_11RelayPlugin8RP_GroupEEEvPT_PKcj @4019
    _ZN6RakNet9OP_DELETEINS_11RelayPluginEEEvPT_PKcj @4020
    _ZN6RakNet9OP_DELETEINS_11SimpleMutexEEEvPT_PKcj @4021
    _ZN6RakNet9OP_DELETEINS_11StringTableEEEvPT_PKcj @4022
    _ZN6RakNet9OP_DELETEINS_11TeamManagerEEEvPT_PKcj @4023
    _ZN6RakNet9OP_DELETEINS_12PacketLoggerEEEvPT_PKcj @4024
    _ZN6RakNet9OP_DELETEINS_12TCPInterface18ThisPtrPlusSysAddrEEEvPT_PKcj @4025
    _ZN6RakNet9OP_DELETEINS_12TCPInterfaceEEEvPT_PKcj @4026
    _ZN6RakNet9OP_DELETEINS_12TeamBalancerEEEvPT_PKcj @4027
    _ZN6RakNet9OP_DELETEINS_12UDPForwarder12ForwardEntryEEEvPT_PKcj @4028
    _ZN6RakNet9OP_DELETEINS_12UDPForwarderEEEvPT_PKcj @4029
    _ZN6RakNet9OP_DELETEINS_13CloudQueryRowEEEvPT_PKcj @4030
    _ZN6RakNet9OP_DELETEINS_13ConsoleServerEEEvPT_PKcj @4031
    _ZN6RakNet9OP_DELETEINS_13MessageFilterEEEvPT_PKcj @4032
    _ZN6RakNet9OP_DELETEINS_13PacketizedTCPEEEvPT_PKcj @4033
    _ZN6RakNet9OP_DELETEINS_13RakNetSocket2EEEvPT_PKcj @4034
    _ZN6RakNet9OP_DELETEINS_13TM_TeamMemberEEEvPT_PKcj @4035
    _ZN6RakNet9OP_DELETEINS_14DataCompressorEEEvPT_PKcj @4036
    _ZN6RakNet9OP_DELETEINS_14HTTPConnectionEEEvPT_PKcj @4037
    _ZN6RakNet9OP_DELETEINS_14RNS2RecvStructEEEvPT_PKcj @4038
    _ZN6RakNet9OP_DELETEINS_14UDPProxyClient15PingServerGroupEEEvPT_PKcj @4039
    _ZN6RakNet9OP_DELETEINS_14UDPProxyClientEEEvPT_PKcj @4040
    _ZN6RakNet9OP_DELETEINS_14UDPProxyServerEEEvPT_PKcj @4041
    _ZN6RakNet9OP_DELETEINS_15HTTPConnection27RequestEEEvPT_PKcj @4042
    _ZN6RakNet9OP_DELETEINS_15HTTPConnection2EEEvPT_PKcj @4043
    _ZN6RakNet9OP_DELETEINS_15ReplicaManager38RM3WorldEEEvPT_PKcj @4044
    _ZN6RakNet9OP_DELETEINS_15TelnetTransport12TelnetClientEEEvPT_PKcj @4045
    _ZN6RakNet9OP_DELETEINS_15TelnetTransportEEEvPT_PKcj @4046
    _ZN6RakNet9OP_DELETEINS_16ConnectionGraph212RemoteSystemEEEvPT_PKcj @4047
    _ZN6RakNet9OP_DELETEINS_16ConnectionGraph2EEEvPT_PKcj @4048
    _ZN6RakNet9OP_DELETEINS_16FileListProgressEEEvPT_PKcj @4049
    _ZN6RakNet9OP_DELETEINS_16FileListReceiverEEEvPT_PKcj @4050
    _ZN6RakNet9OP_DELETEINS_16FileListTransfer10FileToPushEEEvPT_PKcj @4051
    _ZN6RakNet9OP_DELETEINS_16FileListTransfer19FileToPushRecipientEEEvPT_PKcj @4052
    _ZN6RakNet9OP_DELETEINS_16FileListTransferEEEvPT_PKcj @4053
    _ZN6RakNet9OP_DELETEINS_16LogCommandParserEEEvPT_PKcj @4054
    _ZN6RakNet9OP_DELETEINS_16NetworkIDManagerEEEvPT_PKcj @4055
    _ZN6RakNet9OP_DELETEINS_16RakNetTransport2EEEvPT_PKcj @4056
    _ZN6RakNet9OP_DELETEINS_16StringCompressorEEEvPT_PKcj @4057
    _ZN6RakNet9OP_DELETEINS_17StatisticsHistory13TrackedObjectEEEvPT_PKcj @4058
    _ZN6RakNet9OP_DELETEINS_17StatisticsHistory17TimeAndValueQueueEEEvPT_PKcj @4059
    _ZN6RakNet9OP_DELETEINS_17StatisticsHistoryEEEvPT_PKcj @4060
    _ZN6RakNet9OP_DELETEINS_18SplitPacketChannelEEEvPT_PKcj @4061
    _ZN6RakNet9OP_DELETEINS_19FullyConnectedMesh222VerifiedJoinInProgressEEEvPT_PKcj @4062
    _ZN6RakNet9OP_DELETEINS_19FullyConnectedMesh2EEEvPT_PKcj @4063
    _ZN6RakNet9OP_DELETEINS_19HuffmanEncodingTreeEEEvPT_PKcj @4064
    _ZN6RakNet9OP_DELETEINS_19RakNetCommandParserEEEvPT_PKcj @4065
    _ZN6RakNet9OP_DELETEINS_19UDPProxyCoordinator17ForwardingRequestEEEvPT_PKcj @4066
    _ZN6RakNet9OP_DELETEINS_19UDPProxyCoordinatorEEEvPT_PKcj @4067
    _ZN6RakNet9OP_DELETEINS_20TwoWayAuthentication27NonceAndRemoteSystemRequestEEEvPT_PKcj @4068
    _ZN6RakNet9OP_DELETEINS_21NatPunchthroughClientEEEvPT_PKcj @4069
    _ZN6RakNet9OP_DELETEINS_21NatPunchthroughServer17ConnectionAttemptEEEvPT_PKcj @4070
    _ZN6RakNet9OP_DELETEINS_21NatPunchthroughServer4UserEEEvPT_PKcj @4071
    _ZN6RakNet9OP_DELETEINS_21NatPunchthroughServerEEEvPT_PKcj @4072
    _ZN6RakNet9OP_DELETEINS_22DirectoryDeltaTransferEEEvPT_PKcj @4073
    _ZN6RakNet9OP_DELETEINS_22NatTypeDetectionClientEEEvPT_PKcj @4074
    _ZN6RakNet9OP_DELETEINS_22NatTypeDetectionServerEEEvPT_PKcj @4075
    _ZN6RakNet9OP_DELETEINS_23LastSerializationResultEEEvPT_PKcj @4076
    _ZN6RakNet9OP_DELETEINS_23StatisticsHistoryPluginEEEvPT_PKcj @4077
    _ZN6RakNet9OP_DELETEINS_25LastSerializationResultBSEEEvPT_PKcj @4078
    _ZN6RakNet9OP_DELETEINS_27FileListTransferCBInterfaceEEEvPT_PKcj @4079
    _ZN6RakNet9OP_DELETEINS_4RPC413LocalCallbackEEEvPT_PKcj @4080
    _ZN6RakNet9OP_DELETEINS_4RPC49LocalSlotEEEvPT_PKcj @4081
    _ZN6RakNet9OP_DELETEINS_4RPC4EEEvPT_PKcj @4082
    _ZN6RakNet9OP_DELETEINS_6PacketEEEvPT_PKcj @4083
    _ZN6RakNet9OP_DELETEINS_7RakPeer25RequestedConnectionStructEEEvPT_PKcj @4084
    _ZN6RakNet9OP_DELETEINS_7RakPeer9BanStructEEEvPT_PKcj @4085
    _ZN6RakNet9OP_DELETEINS_7RakPeerEEEvPT_PKcj @4086
    _ZN6RakNet9OP_DELETEINS_7Router215ConnnectRequestEEEvPT_PKcj @4087
    _ZN6RakNet9OP_DELETEINS_7Router2EEEvPT_PKcj @4088
    _ZN6RakNet9OP_DELETEINS_7TM_TeamEEEvPT_PKcj @4089
    _ZN6RakNet9OP_DELETEINS_8FileListEEEvPT_PKcj @4090
    _ZN6RakNet9OP_DELETEINS_8TM_WorldEEEvPT_PKcj @4091
    _ZN6RakNet9OP_DELETEINS_9BitStreamEEEvPT_PKcj @4092
    _ZN6RakNet9OP_DELETEINS_9FilterSetEEEvPT_PKcj @4093
    _ZN6RakNet9OP_DELETEIcEEvPT_PKcj @4094
    _ZN6RakNet9Rackspace10ListImagesEv @4095
    _ZN6RakNet9Rackspace11CreateImageENS_9RakStringES1_ @4096
    _ZN6RakNet9Rackspace11DeleteImageENS_9RakStringE @4097
    _ZN6RakNet9Rackspace11ListFlavorsEv @4098
    _ZN6RakNet9Rackspace11ListServersEv @4099
    _ZN6RakNet9Rackspace12AddOperationENS_22RackspaceOperationTypeENS_9RakStringES2_S2_ @4100
    _ZN6RakNet9Rackspace12AuthenticateEPNS_12TCPInterfaceEPKcS4_S4_ @4101
    _ZN6RakNet9Rackspace12CreateServerENS_9RakStringES1_S1_ @4102
    _ZN6RakNet9Rackspace12DeleteServerENS_9RakStringE @4103
    _ZN6RakNet9Rackspace12RebootServerENS_9RakStringES1_ @4104
    _ZN6RakNet9Rackspace12ResizeServerENS_9RakStringES1_ @4105
    _ZN6RakNet9Rackspace13RebuildServerENS_9RakStringES1_ @4106
    _ZN6RakNet9Rackspace15GetImageDetailsENS_9RakStringE @4107
    _ZN6RakNet9Rackspace16AddEventCallbackEPNS_23Rackspace2EventCallbackE @4108
    _ZN6RakNet9Rackspace16ExecuteOperationERNS0_18RackspaceOperationE @4109
    _ZN6RakNet9Rackspace16GetFlavorDetailsENS_9RakStringE @4110
    _ZN6RakNet9Rackspace16GetServerDetailsENS_9RakStringE @4111
    _ZN6RakNet9Rackspace17EventTypeToStringENS_18RackspaceEventTypeE @4112
    _ZN6RakNet9Rackspace18HasOperationOfTypeENS_22RackspaceOperationTypeE @4113
    _ZN6RakNet9Rackspace18ListSharedIPGroupsEv @4114
    _ZN6RakNet9Rackspace18OnClosedConnectionENS_13SystemAddressE @4115
    _ZN6RakNet9Rackspace18RackspaceOperationC1ERKS1_ @4116
    _ZN6RakNet9Rackspace18RackspaceOperationC1Ev @4117
    _ZN6RakNet9Rackspace18RackspaceOperationD1Ev @4118
    _ZN6RakNet9Rackspace18RackspaceOperationaSERKS1_ @4119
    _ZN6RakNet9Rackspace18ShareServerAddressENS_9RakStringES1_ @4120
    _ZN6RakNet9Rackspace19ClearEventCallbacksEv @4121
    _ZN6RakNet9Rackspace19CreateSharedIPGroupENS_9RakStringES1_ @4122
    _ZN6RakNet9Rackspace19DeleteServerAddressENS_9RakStringES1_ @4123
    _ZN6RakNet9Rackspace19DeleteSharedIPGroupENS_9RakStringE @4124
    _ZN6RakNet9Rackspace19ListServerAddressesENS_9RakStringE @4125
    _ZN6RakNet9Rackspace19RemoveEventCallbackEPNS_23Rackspace2EventCallbackE @4126
    _ZN6RakNet9Rackspace19RevertResizedServerENS_9RakStringE @4127
    _ZN6RakNet9Rackspace20ConfirmResizedServerENS_9RakStringE @4128
    _ZN6RakNet9Rackspace22ListServersWithDetailsEv @4129
    _ZN6RakNet9Rackspace23GetOperationOfTypeIndexENS_22RackspaceOperationTypeE @4130
    _ZN6RakNet9Rackspace23GetSharedIPGroupDetailsENS_9RakStringE @4131
    _ZN6RakNet9Rackspace26UpdateServerNameOrPasswordENS_9RakStringES1_S1_ @4132
    _ZN6RakNet9Rackspace29ListSharedIPGroupsWithDetailsEv @4133
    _ZN6RakNet9Rackspace31ConnectToServerManagementDomainERNS0_18RackspaceOperationE @4134
    _ZN6RakNet9Rackspace8ReadLineEPKcS2_RNS_9RakStringE @4135
    _ZN6RakNet9Rackspace9OnReceiveEPNS_6PacketE @4136
    _ZN6RakNet9RackspaceC1Ev @4137
    _ZN6RakNet9RackspaceC2Ev @4138
    _ZN6RakNet9RackspaceD1Ev @4139
    _ZN6RakNet9RackspaceD2Ev @4140
    _ZN6RakNet9RakString10FreeMemoryEv @4141
    _ZN6RakNet9RakString10ToWideCharEv @4142
    _ZN6RakNet9RakString11AppendBytesEPKcj @4143
    _ZN6RakNet9RakString11DeserializeEPNS_9BitStreamE @4144
    _ZN6RakNet9RakString11DeserializeEPcPNS_9BitStreamE @4145
    _ZN6RakNet9RakString11NonVariadicEPKc @4146
    _ZN6RakNet9RakString11UnlockMutexEv @4147
    _ZN6RakNet9RakString11emptyStringE @4148 DATA
    _ZN6RakNet9RakString12FormatForGETEPKcS2_ @4149
    _ZN6RakNet9RakString12FormatForPUTEPKcS2_S2_S2_ @4150
    _ZN6RakNet9RakString12FromWideCharEPKw @4151
    _ZN6RakNet9RakString12MakeFilePathEv @4152
    _ZN6RakNet9RakString12TruncateUTF8Ej @4153
    _ZN6RakNet9RakString13FormatForPOSTEPKcS2_S2_S2_ @4154
    _ZN6RakNet9RakString13RakStringCompERKS0_S2_ @4155
    _ZN6RakNet9RakString14FromWideChar_SEPKw @4156
    _ZN6RakNet9RakString14IPAddressMatchEPKc @4157
    _ZN6RakNet9RakString15DeallocWideCharEPw @4158
    _ZN6RakNet9RakString15FormatForDELETEEPKcS2_ @4159
    _ZN6RakNet9RakString15RemoveCharacterEc @4160
    _ZN6RakNet9RakString17FreeMemoryNoMutexEv @4161
    _ZN6RakNet9RakString17GetCharacterCountEc @4162
    _ZN6RakNet9RakString17GetSizeToAllocateEj @4163
    _ZN6RakNet9RakString18FormatForPUTOrPostEPKcS2_S2_S2_S2_ @4164
    _ZN6RakNet9RakString19SerializeCompressedEPKcPNS_9BitStreamEhb @4165
    _ZN6RakNet9RakString20ReadIntFromSubstringEPKcjj @4166
    _ZN6RakNet9RakString21DeserializeCompressedEPNS_9BitStreamEb @4167
    _ZN6RakNet9RakString21DeserializeCompressedEPcPNS_9BitStreamEb @4168
    _ZN6RakNet9RakString23StartAfterLastCharacterEc @4169
    _ZN6RakNet9RakString24StartAfterFirstCharacterEc @4170
    _ZN6RakNet9RakString24TerminateAtLastCharacterEc @4171
    _ZN6RakNet9RakString25TerminateAtFirstCharacterEc @4172
    _ZN6RakNet9RakString3SetEPKcz @4173
    _ZN6RakNet9RakString4FindEPKcj @4174
    _ZN6RakNet9RakString4FreeEv @4175
    _ZN6RakNet9RakString5ClearEv @4176
    _ZN6RakNet9RakString5CloneEv @4177
    _ZN6RakNet9RakString5EraseEjj @4178
    _ZN6RakNet9RakString6AssignEPKc @4179
    _ZN6RakNet9RakString6AssignEPKcPc @4180
    _ZN6RakNet9RakString6AssignEPKcjj @4181
    _ZN6RakNet9RakString6PrintfEv @4182
    _ZN6RakNet9RakString7FPrintfEP6_iobuf @4183
    _ZN6RakNet9RakString7ReallocEPNS0_12SharedStringEj @4184
    _ZN6RakNet9RakString7ReplaceEjjh @4185
    _ZN6RakNet9RakString7SetCharEjS0_ @4186
    _ZN6RakNet9RakString7SetCharEjh @4187
    _ZN6RakNet9RakString7ToLowerEh @4188
    _ZN6RakNet9RakString7ToLowerEv @4189
    _ZN6RakNet9RakString7ToUpperEh @4190
    _ZN6RakNet9RakString7ToUpperEv @4191
    _ZN6RakNet9RakString8AllocateEj @4192
    _ZN6RakNet9RakString8SplitURIERS0_S1_S1_ @4193
    _ZN6RakNet9RakString8ToStringEx @4194
    _ZN6RakNet9RakString8ToStringEy @4195
    _ZN6RakNet9RakString8TruncateEj @4196
    _ZN6RakNet9RakString8freeListE @4197 DATA
    _ZN6RakNet9RakString9LockMutexEv @4198
    _ZN6RakNet9RakString9SQLEscapeEv @4199
    _ZN6RakNet9RakString9SerializeEPKcPNS_9BitStreamE @4200
    _ZN6RakNet9RakString9ToIntegerEPKc @4201
    _ZN6RakNet9RakString9ToIntegerERKS0_ @4202
    _ZN6RakNet9RakString9URLDecodeEv @4203
    _ZN6RakNet9RakString9URLEncodeEv @4204
    _ZN6RakNet9RakStringC1EPKcz @4205
    _ZN6RakNet9RakStringC1EPKhz @4206
    _ZN6RakNet9RakStringC1EPNS0_12SharedStringE @4207
    _ZN6RakNet9RakStringC1ERKS0_ @4208
    _ZN6RakNet9RakStringC1Ec @4209
    _ZN6RakNet9RakStringC1Eh @4210
    _ZN6RakNet9RakStringC1Ev @4211
    _ZN6RakNet9RakStringC2EPKcz @4212
    _ZN6RakNet9RakStringC2EPKhz @4213
    _ZN6RakNet9RakStringC2EPNS0_12SharedStringE @4214
    _ZN6RakNet9RakStringC2ERKS0_ @4215
    _ZN6RakNet9RakStringC2Ec @4216
    _ZN6RakNet9RakStringC2Eh @4217
    _ZN6RakNet9RakStringC2Ev @4218
    _ZN6RakNet9RakStringD1Ev @4219
    _ZN6RakNet9RakStringD2Ev @4220
    _ZN6RakNet9RakStringaSEPKc @4221
    _ZN6RakNet9RakStringaSEPKh @4222
    _ZN6RakNet9RakStringaSEPc @4223
    _ZN6RakNet9RakStringaSEPh @4224
    _ZN6RakNet9RakStringaSERKS0_ @4225
    _ZN6RakNet9RakStringaSEc @4226
    _ZN6RakNet9RakStringpLEPKc @4227
    _ZN6RakNet9RakStringpLEPKh @4228
    _ZN6RakNet9RakStringpLEPc @4229
    _ZN6RakNet9RakStringpLEPh @4230
    _ZN6RakNet9RakStringpLERKS0_ @4231
    _ZN6RakNet9RakStringpLEc @4232
    _ZN6RakNet9RakThread6CreateEPU7stdcallFjPvES1_i @4233
    _ZN8CheckSum3AddEPhj @4234
    _ZN8CheckSum3AddEh @4235
    _ZN8CheckSum3AddEj @4236
    _ZN8CheckSum3AddEt @4237
    _ZNK14DataStructures10MemoryPoolIA128_hE13BlocksPerPageEv @4238
    _ZNK14DataStructures10MemoryPoolIA2048_hE13BlocksPerPageEv @4239
    _ZNK14DataStructures10MemoryPoolIA512_hE13BlocksPerPageEv @4240
    _ZNK14DataStructures10MemoryPoolIA8192_hE13BlocksPerPageEv @4241
    _ZNK14DataStructures10MemoryPoolIN6RakNet12UDPForwarder20StopForwardingStructEE13BlocksPerPageEv @4242
    _ZNK14DataStructures10MemoryPoolIN6RakNet12UDPForwarder26StartForwardingInputStructEE13BlocksPerPageEv @4243
    _ZNK14DataStructures10MemoryPoolIN6RakNet13SystemAddressEE13BlocksPerPageEv @4244
    _ZNK14DataStructures10MemoryPoolIN6RakNet14InternalPacketEE13BlocksPerPageEv @4245
    _ZNK14DataStructures10MemoryPoolIN6RakNet16ReliabilityLayer17MessageNumberNodeEE13BlocksPerPageEv @4246
    _ZNK14DataStructures10MemoryPoolIN6RakNet17RemoteSystemIndexEE13BlocksPerPageEv @4247
    _ZNK14DataStructures10MemoryPoolIN6RakNet23VariableDeltaSerializer20ChangedVariablesListEE13BlocksPerPageEv @4248
    _ZNK14DataStructures10MemoryPoolIN6RakNet28InternalPacketRefCountedDataEE13BlocksPerPageEv @4249
    _ZNK14DataStructures10MemoryPoolIN6RakNet6PacketEE13BlocksPerPageEv @4250
    _ZNK14DataStructures10MemoryPoolIN6RakNet7RakPeer17SocketQueryOutputEE13BlocksPerPageEv @4251
    _ZNK14DataStructures10MemoryPoolIN6RakNet7RakPeer21BufferedCommandStructEE13BlocksPerPageEv @4252
    _ZNK14DataStructures10MemoryPoolINS_4PageIjPNS_5Table3RowELi16EEEE13BlocksPerPageEv @4253
    _ZNK14DataStructures10MemoryPoolIPN6RakNet12RemoteClientEE13BlocksPerPageEv @4254
    _ZNK14DataStructures11OrderedListIN6RakNet10RakNetGUIDENS1_10ReadyEvent12RemoteSystemEXadL_ZNS3_22RemoteSystemCompByGuidERKS2_RKS4_EEE15GetIndexFromKeyES6_PbPFiS6_S8_E @4255
    _ZNK14DataStructures11OrderedListIN6RakNet10RakNetGUIDENS1_10ReadyEvent12RemoteSystemEXadL_ZNS3_22RemoteSystemCompByGuidERKS2_RKS4_EEE4SizeEv @4256
    _ZNK14DataStructures11OrderedListIN6RakNet10RakNetGUIDENS1_10ReadyEvent12RemoteSystemEXadL_ZNS3_22RemoteSystemCompByGuidERKS2_RKS4_EEE7HasDataES6_PFiS6_S8_E @4257
    _ZNK14DataStructures11OrderedListIN6RakNet10RakNetGUIDENS1_10ReadyEvent12RemoteSystemEXadL_ZNS3_22RemoteSystemCompByGuidERKS2_RKS4_EEEixEj @4258
    _ZNK14DataStructures11OrderedListIN6RakNet10RakNetGUIDEPNS1_11CloudServer12RemoteServerEXadL_ZNS3_16RemoteServerCompERKS2_RKS5_EEE15GetIndexFromKeyES7_PbPFiS7_S9_E @4259
    _ZNK14DataStructures11OrderedListIN6RakNet10RakNetGUIDEPNS1_11CloudServer12RemoteServerEXadL_ZNS3_16RemoteServerCompERKS2_RKS5_EEE4SizeEv @4260
    _ZNK14DataStructures11OrderedListIN6RakNet10RakNetGUIDEPNS1_11CloudServer12RemoteServerEXadL_ZNS3_16RemoteServerCompERKS2_RKS5_EEEixEj @4261
    _ZNK14DataStructures11OrderedListIN6RakNet10RakNetGUIDEPNS1_11CloudServer29BufferedGetResponseFromServerEXadL_ZNS3_33BufferedGetResponseFromServerCompERKS2_RKS5_EEE15GetIndexFromKeyES7_PbPFiS7_S9_E @4262
    _ZNK14DataStructures11OrderedListIN6RakNet10RakNetGUIDEPNS1_11CloudServer29BufferedGetResponseFromServerEXadL_ZNS3_33BufferedGetResponseFromServerCompERKS2_RKS5_EEE4SizeEv @4263
    _ZNK14DataStructures11OrderedListIN6RakNet10RakNetGUIDEPNS1_11CloudServer29BufferedGetResponseFromServerEXadL_ZNS3_33BufferedGetResponseFromServerCompERKS2_RKS5_EEEixEj @4264
    _ZNK14DataStructures11OrderedListIN6RakNet10RakNetGUIDEPNS1_11CloudServer9CloudDataEXadL_ZNS3_14KeyDataPtrCompERKS2_RKS5_EEE15GetIndexFromKeyES7_PbPFiS7_S9_E @4265
    _ZNK14DataStructures11OrderedListIN6RakNet10RakNetGUIDEPNS1_11CloudServer9CloudDataEXadL_ZNS3_14KeyDataPtrCompERKS2_RKS5_EEE4SizeEv @4266
    _ZNK14DataStructures11OrderedListIN6RakNet10RakNetGUIDEPNS1_11CloudServer9CloudDataEXadL_ZNS3_14KeyDataPtrCompERKS2_RKS5_EEEixEj @4267
    _ZNK14DataStructures11OrderedListIN6RakNet10RakNetGUIDEPNS1_16ConnectionGraph212RemoteSystemEXadL_ZNS3_16RemoteSystemCompERKS2_RKS5_EEE15GetIndexFromKeyES7_PbPFiS7_S9_E @4268
    _ZNK14DataStructures11OrderedListIN6RakNet10RakNetGUIDEPNS1_16ConnectionGraph212RemoteSystemEXadL_ZNS3_16RemoteSystemCompERKS2_RKS5_EEE4SizeEv @4269
    _ZNK14DataStructures11OrderedListIN6RakNet10RakNetGUIDEPNS1_16ConnectionGraph212RemoteSystemEXadL_ZNS3_16RemoteSystemCompERKS2_RKS5_EEEixEj @4270
    _ZNK14DataStructures11OrderedListIN6RakNet10RakNetGUIDEPNS1_21NatPunchthroughServer4UserEXadL_ZNS3_23NatPunchthroughUserCompERKS2_RKS5_EEE15GetIndexFromKeyES7_PbPFiS7_S9_E @4271
    _ZNK14DataStructures11OrderedListIN6RakNet10RakNetGUIDEPNS1_21NatPunchthroughServer4UserEXadL_ZNS3_23NatPunchthroughUserCompERKS2_RKS5_EEE4SizeEv @4272
    _ZNK14DataStructures11OrderedListIN6RakNet10RakNetGUIDEPNS1_21NatPunchthroughServer4UserEXadL_ZNS3_23NatPunchthroughUserCompERKS2_RKS5_EEEixEj @4273
    _ZNK14DataStructures11OrderedListIN6RakNet10RakNetGUIDES2_XadL_ZNS_28defaultOrderedListComparisonIS2_S2_EEiRKT_RKT0_EEE15GetIndexFromKeyERKS2_PbPFiSC_SC_E @4274
    _ZNK14DataStructures11OrderedListIN6RakNet10RakNetGUIDES2_XadL_ZNS_28defaultOrderedListComparisonIS2_S2_EEiRKT_RKT0_EEE4SizeEv @4275
    _ZNK14DataStructures11OrderedListIN6RakNet10RakNetGUIDES2_XadL_ZNS_28defaultOrderedListComparisonIS2_S2_EEiRKT_RKT0_EEEixEj @4276
    _ZNK14DataStructures11OrderedListIN6RakNet13SystemAddressENS_3MapIS2_PNS_9ByteQueueEXadL_ZNS_23defaultMapKeyComparisonIS2_EEiRKT_S9_EEE7MapNodeEXadL_ZNSA_18NodeComparisonFuncERKS2_RKSB_EEE15GetIndexFromKeyESD_PbPFiSD_SF_E @4277
    _ZNK14DataStructures11OrderedListIN6RakNet13SystemAddressENS_3MapIS2_PNS_9ByteQueueEXadL_ZNS_23defaultMapKeyComparisonIS2_EEiRKT_S9_EEE7MapNodeEXadL_ZNSA_18NodeComparisonFuncERKS2_RKSB_EEE4SizeEv @4278
    _ZNK14DataStructures11OrderedListIN6RakNet13SystemAddressENS_3MapIS2_PNS_9ByteQueueEXadL_ZNS_23defaultMapKeyComparisonIS2_EEiRKT_S9_EEE7MapNodeEXadL_ZNSA_18NodeComparisonFuncERKS2_RKSB_EEEixEj @4279
    _ZNK14DataStructures11OrderedListIN6RakNet13SystemAddressES2_XadL_ZNS_28defaultOrderedListComparisonIS2_S2_EEiRKT_RKT0_EEE15GetIndexFromKeyERKS2_PbPFiSC_SC_E @4280
    _ZNK14DataStructures11OrderedListIN6RakNet16ConnectionGraph220SystemAddressAndGuidES3_XadL_ZNS2_24SystemAddressAndGuidCompERKS3_S5_EEE15GetIndexFromKeyES5_PbPFiS5_S5_E @4281
    _ZNK14DataStructures11OrderedListIN6RakNet16ConnectionGraph220SystemAddressAndGuidES3_XadL_ZNS2_24SystemAddressAndGuidCompERKS3_S5_EEE4SizeEv @4282
    _ZNK14DataStructures11OrderedListIN6RakNet16ConnectionGraph220SystemAddressAndGuidES3_XadL_ZNS2_24SystemAddressAndGuidCompERKS3_S5_EEE7HasDataES5_PFiS5_S5_E @4283
    _ZNK14DataStructures11OrderedListIN6RakNet16ConnectionGraph220SystemAddressAndGuidES3_XadL_ZNS2_24SystemAddressAndGuidCompERKS3_S5_EEEixEj @4284
    _ZNK14DataStructures11OrderedListIN6RakNet19UDPProxyCoordinator22SenderAndTargetAddressEPNS2_17ForwardingRequestEXadL_ZNS2_21ForwardingRequestCompERKS3_RKS5_EEE15GetIndexFromKeyES7_PbPFiS7_S9_E @4285
    _ZNK14DataStructures11OrderedListIN6RakNet19UDPProxyCoordinator22SenderAndTargetAddressEPNS2_17ForwardingRequestEXadL_ZNS2_21ForwardingRequestCompERKS3_RKS5_EEE4SizeEv @4286
    _ZNK14DataStructures11OrderedListIN6RakNet19UDPProxyCoordinator22SenderAndTargetAddressEPNS2_17ForwardingRequestEXadL_ZNS2_21ForwardingRequestCompERKS3_RKS5_EEEixEj @4287
    _ZNK14DataStructures11OrderedListIN6RakNet4RPC415LocalSlotObjectES3_XadL_ZNS2_19LocalSlotObjectCompERKS3_S5_EEE15GetIndexFromKeyES5_PbPFiS5_S5_E @4288
    _ZNK14DataStructures11OrderedListIN6RakNet4RPC415LocalSlotObjectES3_XadL_ZNS2_19LocalSlotObjectCompERKS3_S5_EEE4SizeEv @4289
    _ZNK14DataStructures11OrderedListIN6RakNet4RPC415LocalSlotObjectES3_XadL_ZNS2_19LocalSlotObjectCompERKS3_S5_EEEixEj @4290
    _ZNK14DataStructures11OrderedListIN6RakNet7Router223ConnectionRequestSystemES3_XadL_Z27ConnectionRequestSystemCompRKS3_S5_EEE15GetIndexFromKeyES5_PbPFiS5_S5_E @4291
    _ZNK14DataStructures11OrderedListIN6RakNet7Router223ConnectionRequestSystemES3_XadL_Z27ConnectionRequestSystemCompRKS3_S5_EEEixEj @4292
    _ZNK14DataStructures11OrderedListIN6RakNet8CloudKeyEPNS1_11CloudServer13CloudDataListEXadL_ZNS3_15KeyDataListCompERKS2_RKS5_EEE15GetIndexFromKeyES7_PbPFiS7_S9_E @4293
    _ZNK14DataStructures11OrderedListIN6RakNet8CloudKeyEPNS1_11CloudServer13CloudDataListEXadL_ZNS3_15KeyDataListCompERKS2_RKS5_EEE4SizeEv @4294
    _ZNK14DataStructures11OrderedListIN6RakNet8CloudKeyEPNS1_11CloudServer13CloudDataListEXadL_ZNS3_15KeyDataListCompERKS2_RKS5_EEEixEj @4295
    _ZNK14DataStructures11OrderedListIN6RakNet8CloudKeyEPNS1_11CloudServer15KeySubscriberIDEXadL_ZNS3_19KeySubscriberIDCompERKS2_RKS5_EEE15GetIndexFromKeyES7_PbPFiS7_S9_E @4296
    _ZNK14DataStructures11OrderedListIN6RakNet8CloudKeyEPNS1_11CloudServer15KeySubscriberIDEXadL_ZNS3_19KeySubscriberIDCompERKS2_RKS5_EEE4SizeEv @4297
    _ZNK14DataStructures11OrderedListIN6RakNet8CloudKeyEPNS1_11CloudServer15KeySubscriberIDEXadL_ZNS3_19KeySubscriberIDCompERKS2_RKS5_EEEixEj @4298
    _ZNK14DataStructures11OrderedListIN6RakNet8CloudKeyES2_XadL_ZNS1_12CloudKeyCompERKS2_S4_EEE15GetIndexFromKeyES4_PbPFiS4_S4_E @4299
    _ZNK14DataStructures11OrderedListIN6RakNet8CloudKeyES2_XadL_ZNS1_12CloudKeyCompERKS2_S4_EEE4SizeEv @4300
    _ZNK14DataStructures11OrderedListIN6RakNet8CloudKeyES2_XadL_ZNS1_12CloudKeyCompERKS2_S4_EEE7HasDataES4_PFiS4_S4_E @4301
    _ZNK14DataStructures11OrderedListIN6RakNet8CloudKeyES2_XadL_ZNS1_12CloudKeyCompERKS2_S4_EEEixEj @4302
    _ZNK14DataStructures11OrderedListIN6RakNet8TM_World17JoinRequestHelperES3_XadL_ZNS2_21JoinRequestHelperCompERKS3_S5_EEE15GetIndexFromKeyES5_PbPFiS5_S5_E @4303
    _ZNK14DataStructures11OrderedListIN6RakNet8TM_World17JoinRequestHelperES3_XadL_ZNS2_21JoinRequestHelperCompERKS3_S5_EEE4SizeEv @4304
    _ZNK14DataStructures11OrderedListIN6RakNet8TM_World17JoinRequestHelperES3_XadL_ZNS2_21JoinRequestHelperCompERKS3_S5_EEEixEj @4305
    _ZNK14DataStructures11OrderedListIN6RakNet8uint24_tENS_9RangeNodeIS2_EEXadL_ZNS_13RangeNodeCompIS2_EEiRKT_RKNS3_IS6_EEEEE15GetIndexFromKeyERKS2_PbPFiSE_RKS4_E @4306
    _ZNK14DataStructures11OrderedListIN6RakNet8uint24_tENS_9RangeNodeIS2_EEXadL_ZNS_13RangeNodeCompIS2_EEiRKT_RKNS3_IS6_EEEEE4SizeEv @4307
    _ZNK14DataStructures11OrderedListIN6RakNet8uint24_tENS_9RangeNodeIS2_EEXadL_ZNS_13RangeNodeCompIS2_EEiRKT_RKNS3_IS6_EEEEEixEj @4308
    _ZNK14DataStructures11OrderedListIN6RakNet9RakStringES2_XadL_ZNS_28defaultOrderedListComparisonIS2_S2_EEiRKT_RKT0_EEE15GetIndexFromKeyERKS2_PbPFiSC_SC_E @4309
    _ZNK14DataStructures11OrderedListIN6RakNet9RakStringES2_XadL_ZNS_28defaultOrderedListComparisonIS2_S2_EEiRKT_RKT0_EEE4SizeEv @4310
    _ZNK14DataStructures11OrderedListIN6RakNet9RakStringES2_XadL_ZNS_28defaultOrderedListComparisonIS2_S2_EEiRKT_RKT0_EEE7HasDataERKS2_PFiSC_SC_E @4311
    _ZNK14DataStructures11OrderedListIN6RakNet9RakStringES2_XadL_ZNS_28defaultOrderedListComparisonIS2_S2_EEiRKT_RKT0_EEEixEj @4312
    _ZNK14DataStructures11OrderedListIPKcN6RakNet17RegisteredCommandEXadL_ZNS3_21RegisteredCommandCompERKS2_RKS4_EEE15GetIndexFromKeyES6_PbPFiS6_S8_E @4313
    _ZNK14DataStructures11OrderedListIPKcN6RakNet17RegisteredCommandEXadL_ZNS3_21RegisteredCommandCompERKS2_RKS4_EEE4SizeEv @4314
    _ZNK14DataStructures11OrderedListIPKcN6RakNet17RegisteredCommandEXadL_ZNS3_21RegisteredCommandCompERKS2_RKS4_EEEixEj @4315
    _ZNK14DataStructures11OrderedListIPN6RakNet17StatisticsHistory17TimeAndValueQueueES4_XadL_Z24TimeAndValueQueueCompAscRKS4_S6_EEE15GetIndexFromKeyES6_PbPFiS6_S6_E @4316
    _ZNK14DataStructures11OrderedListIPN6RakNet17StatisticsHistory17TimeAndValueQueueES4_XadL_Z24TimeAndValueQueueCompAscRKS4_S6_EEE4SizeEv @4317
    _ZNK14DataStructures11OrderedListIPN6RakNet17StatisticsHistory17TimeAndValueQueueES4_XadL_Z24TimeAndValueQueueCompAscRKS4_S6_EEEixEj @4318
    _ZNK14DataStructures11OrderedListIPN6RakNet19FullyConnectedMesh215FCM2ParticipantES4_XadL_Z19FCM2ParticipantCompRKS4_S6_EEE15GetIndexFromKeyES6_PbPFiS6_S6_E @4319
    _ZNK14DataStructures11OrderedListIPN6RakNet19FullyConnectedMesh215FCM2ParticipantES4_XadL_Z19FCM2ParticipantCompRKS4_S6_EEE4SizeEv @4320
    _ZNK14DataStructures11OrderedListIPN6RakNet19FullyConnectedMesh215FCM2ParticipantES4_XadL_Z19FCM2ParticipantCompRKS4_S6_EEEixEj @4321
    _ZNK14DataStructures11OrderedListIPN6RakNet8Replica3EPNS1_23LastSerializationResultEXadL_ZNS1_14Connection_RM315Replica3LSRCompERKS3_RKS5_EEE15GetIndexFromKeyES8_PbPFiS8_SA_E @4322
    _ZNK14DataStructures11OrderedListIPN6RakNet8Replica3EPNS1_23LastSerializationResultEXadL_ZNS1_14Connection_RM315Replica3LSRCompERKS3_RKS5_EEE4SizeEv @4323
    _ZNK14DataStructures11OrderedListIPN6RakNet8Replica3EPNS1_23LastSerializationResultEXadL_ZNS1_14Connection_RM315Replica3LSRCompERKS3_RKS5_EEEixEj @4324
    _ZNK14DataStructures11OrderedListIPNS_5Table3RowES3_XadL_Z7RowSortRKS3_S5_EEE15GetIndexFromKeyES5_PbPFiS5_S5_E @4325
    _ZNK14DataStructures11OrderedListIPNS_5Table3RowES3_XadL_Z7RowSortRKS3_S5_EEE4SizeEv @4326
    _ZNK14DataStructures11OrderedListIPNS_5Table3RowES3_XadL_Z7RowSortRKS3_S5_EEEixEj @4327
    _ZNK14DataStructures11OrderedListIPc10StrAndBoolXadL_ZN6RakNet14StrAndBoolCompERKS1_RKS2_EEE15GetIndexFromKeyES5_PbPFiS5_S7_E @4328
    _ZNK14DataStructures11OrderedListIPc10StrAndBoolXadL_ZN6RakNet14StrAndBoolCompERKS1_RKS2_EEE4SizeEv @4329
    _ZNK14DataStructures11OrderedListIPc10StrAndBoolXadL_ZN6RakNet14StrAndBoolCompERKS1_RKS2_EEEixEj @4330
    _ZNK14DataStructures11OrderedListIhPN6RakNet4RPC413LocalCallbackEXadL_ZNS2_17LocalCallbackCompERKhRKS4_EEE15GetIndexFromKeyES6_PbPFiS6_S8_E @4331
    _ZNK14DataStructures11OrderedListIhPN6RakNet4RPC413LocalCallbackEXadL_ZNS2_17LocalCallbackCompERKhRKS4_EEE4SizeEv @4332
    _ZNK14DataStructures11OrderedListIhPN6RakNet4RPC413LocalCallbackEXadL_ZNS2_17LocalCallbackCompERKhRKS4_EEEixEj @4333
    _ZNK14DataStructures11OrderedListIiNS_3MapIiPN6RakNet19HuffmanEncodingTreeEXadL_ZNS_23defaultMapKeyComparisonIiEEiRKT_S8_EEE7MapNodeEXadL_ZNS9_18NodeComparisonFuncERKiRKSA_EEE15GetIndexFromKeyESC_PbPFiSC_SE_E @4334
    _ZNK14DataStructures11OrderedListIiNS_3MapIiPN6RakNet19HuffmanEncodingTreeEXadL_ZNS_23defaultMapKeyComparisonIiEEiRKT_S8_EEE7MapNodeEXadL_ZNS9_18NodeComparisonFuncERKiRKSA_EEE4SizeEv @4335
    _ZNK14DataStructures11OrderedListIiNS_3MapIiPN6RakNet19HuffmanEncodingTreeEXadL_ZNS_23defaultMapKeyComparisonIiEEiRKT_S8_EEE7MapNodeEXadL_ZNS9_18NodeComparisonFuncERKiRKSA_EEEixEj @4336
    _ZNK14DataStructures11OrderedListIiPN6RakNet10ReadyEvent14ReadyEventNodeEXadL_ZNS2_18ReadyEventNodeCompERKiRKS4_EEE15GetIndexFromKeyES6_PbPFiS6_S8_E @4337
    _ZNK14DataStructures11OrderedListIiPN6RakNet10ReadyEvent14ReadyEventNodeEXadL_ZNS2_18ReadyEventNodeCompERKiRKS4_EEE4SizeEv @4338
    _ZNK14DataStructures11OrderedListIiPN6RakNet10ReadyEvent14ReadyEventNodeEXadL_ZNS2_18ReadyEventNodeCompERKiRKS4_EEE7HasDataES6_PFiS6_S8_E @4339
    _ZNK14DataStructures11OrderedListIiPN6RakNet10ReadyEvent14ReadyEventNodeEXadL_ZNS2_18ReadyEventNodeCompERKiRKS4_EEEixEj @4340
    _ZNK14DataStructures11OrderedListIiPN6RakNet9FilterSetEXadL_ZNS1_13FilterSetCompERKiRKS3_EEE15GetIndexFromKeyES5_PbPFiS5_S7_E @4341
    _ZNK14DataStructures11OrderedListIiPN6RakNet9FilterSetEXadL_ZNS1_13FilterSetCompERKiRKS3_EEE4SizeEv @4342
    _ZNK14DataStructures11OrderedListIiPN6RakNet9FilterSetEXadL_ZNS1_13FilterSetCompERKiRKS3_EEEixEj @4343
    _ZNK14DataStructures11OrderedListIjNS_3MapIjN6RakNet15FLR_MemoryBlockEXadL_ZNS_23defaultMapKeyComparisonIjEEiRKT_S7_EEE7MapNodeEXadL_ZNS8_18NodeComparisonFuncERKjRKS9_EEE15GetIndexFromKeyESB_PbPFiSB_SD_E @4344
    _ZNK14DataStructures11OrderedListIjNS_3MapIjN6RakNet15FLR_MemoryBlockEXadL_ZNS_23defaultMapKeyComparisonIjEEiRKT_S7_EEE7MapNodeEXadL_ZNS8_18NodeComparisonFuncERKjRKS9_EEE4SizeEv @4345
    _ZNK14DataStructures11OrderedListIjNS_3MapIjN6RakNet15FLR_MemoryBlockEXadL_ZNS_23defaultMapKeyComparisonIjEEiRKT_S7_EEE7MapNodeEXadL_ZNS8_18NodeComparisonFuncERKjRKS9_EEEixEj @4346
    _ZNK14DataStructures11OrderedListIjPN6RakNet11CloudServer10GetRequestEXadL_ZNS2_14GetRequestCompERKjRKS4_EEE15GetIndexFromKeyES6_PbPFiS6_S8_E @4347
    _ZNK14DataStructures11OrderedListIjPN6RakNet11CloudServer10GetRequestEXadL_ZNS2_14GetRequestCompERKjRKS4_EEE4SizeEv @4348
    _ZNK14DataStructures11OrderedListIjPN6RakNet11CloudServer10GetRequestEXadL_ZNS2_14GetRequestCompERKjRKS4_EEEixEj @4349
    _ZNK14DataStructures11OrderedListIjPN6RakNet23VariableDeltaSerializer20ChangedVariablesListEXadL_ZNS2_27UpdatedVariablesListPtrCompERKjRKS4_EEE15GetIndexFromKeyES6_PbPFiS6_S8_E @4350
    _ZNK14DataStructures11OrderedListIjPN6RakNet23VariableDeltaSerializer20ChangedVariablesListEXadL_ZNS2_27UpdatedVariablesListPtrCompERKjRKS4_EEE4SizeEv @4351
    _ZNK14DataStructures11OrderedListIjPN6RakNet23VariableDeltaSerializer20ChangedVariablesListEXadL_ZNS2_27UpdatedVariablesListPtrCompERKjRKS4_EEEixEj @4352
    _ZNK14DataStructures11OrderedListItN6RakNet19UDPProxyCoordinator14ServerWithPingEXadL_ZNS2_18ServerWithPingCompERKtRKS3_EEE15GetIndexFromKeyES5_PbPFiS5_S7_E @4353
    _ZNK14DataStructures11OrderedListItN6RakNet19UDPProxyCoordinator14ServerWithPingEXadL_ZNS2_18ServerWithPingCompERKtRKS3_EEE4SizeEv @4354
    _ZNK14DataStructures11OrderedListItN6RakNet19UDPProxyCoordinator14ServerWithPingEXadL_ZNS2_18ServerWithPingCompERKtRKS3_EEEixEj @4355
    _ZNK14DataStructures11OrderedListItNS_3MapItPN6RakNet16FileListReceiverEXadL_ZNS_23defaultMapKeyComparisonItEEiRKT_S8_EEE7MapNodeEXadL_ZNS9_18NodeComparisonFuncERKtRKSA_EEE15GetIndexFromKeyESC_PbPFiSC_SE_E @4356
    _ZNK14DataStructures11OrderedListItNS_3MapItPN6RakNet16FileListReceiverEXadL_ZNS_23defaultMapKeyComparisonItEEiRKT_S8_EEE7MapNodeEXadL_ZNS9_18NodeComparisonFuncERKtRKSA_EEE4SizeEv @4357
    _ZNK14DataStructures11OrderedListItNS_3MapItPN6RakNet16FileListReceiverEXadL_ZNS_23defaultMapKeyComparisonItEEiRKT_S8_EEE7MapNodeEXadL_ZNS9_18NodeComparisonFuncERKtRKSA_EEEixEj @4358
    _ZNK14DataStructures11OrderedListItPN6RakNet18SplitPacketChannelEXadL_ZNS1_22SplitPacketChannelCompERKtRKS3_EEE15GetIndexFromKeyES5_PbPFiS5_S7_E @4359
    _ZNK14DataStructures11OrderedListItPN6RakNet18SplitPacketChannelEXadL_ZNS1_22SplitPacketChannelCompERKtRKS3_EEE4SizeEv @4360
    _ZNK14DataStructures11OrderedListItPN6RakNet18SplitPacketChannelEXadL_ZNS1_22SplitPacketChannelCompERKtRKS3_EEEixEj @4361
    _ZNK14DataStructures11OrderedListIyPN6RakNet17StatisticsHistory13TrackedObjectEXadL_ZNS2_17TrackedObjectCompERKyRKS4_EEE15GetIndexFromKeyES6_PbPFiS6_S8_E @4362
    _ZNK14DataStructures11OrderedListIyPN6RakNet17StatisticsHistory13TrackedObjectEXadL_ZNS2_17TrackedObjectCompERKyRKS4_EEE4SizeEv @4363
    _ZNK14DataStructures11OrderedListIyPN6RakNet17StatisticsHistory13TrackedObjectEXadL_ZNS2_17TrackedObjectCompERKyRKS4_EEEixEj @4364
    _ZNK14DataStructures3MapIN6RakNet13SystemAddressEPNS_9ByteQueueEXadL_ZNS_23defaultMapKeyComparisonIS2_EEiRKT_S8_EEE14SaveLastSearchERKS2_j @4365
    _ZNK14DataStructures3MapIN6RakNet13SystemAddressEPNS_9ByteQueueEXadL_ZNS_23defaultMapKeyComparisonIS2_EEiRKT_S8_EEE20HasSavedSearchResultERKS2_ @4366
    _ZNK14DataStructures3MapIN6RakNet13SystemAddressEPNS_9ByteQueueEXadL_ZNS_23defaultMapKeyComparisonIS2_EEiRKT_S8_EEE3HasERKS2_ @4367
    _ZNK14DataStructures3MapIN6RakNet13SystemAddressEPNS_9ByteQueueEXadL_ZNS_23defaultMapKeyComparisonIS2_EEiRKT_S8_EEE4SizeEv @4368
    _ZNK14DataStructures3MapIN6RakNet13SystemAddressEPNS_9ByteQueueEXadL_ZNS_23defaultMapKeyComparisonIS2_EEiRKT_S8_EEEixEj @4369
    _ZNK14DataStructures3MapIiPN6RakNet19HuffmanEncodingTreeEXadL_ZNS_23defaultMapKeyComparisonIiEEiRKT_S7_EEE14SaveLastSearchERKij @4370
    _ZNK14DataStructures3MapIiPN6RakNet19HuffmanEncodingTreeEXadL_ZNS_23defaultMapKeyComparisonIiEEiRKT_S7_EEE20HasSavedSearchResultERKi @4371
    _ZNK14DataStructures3MapIiPN6RakNet19HuffmanEncodingTreeEXadL_ZNS_23defaultMapKeyComparisonIiEEiRKT_S7_EEE3GetERKi @4372
    _ZNK14DataStructures3MapIiPN6RakNet19HuffmanEncodingTreeEXadL_ZNS_23defaultMapKeyComparisonIiEEiRKT_S7_EEE3HasERKi @4373
    _ZNK14DataStructures3MapIiPN6RakNet19HuffmanEncodingTreeEXadL_ZNS_23defaultMapKeyComparisonIiEEiRKT_S7_EEE4SizeEv @4374
    _ZNK14DataStructures3MapIiPN6RakNet19HuffmanEncodingTreeEXadL_ZNS_23defaultMapKeyComparisonIiEEiRKT_S7_EEEixEj @4375
    _ZNK14DataStructures3MapIjN6RakNet15FLR_MemoryBlockEXadL_ZNS_23defaultMapKeyComparisonIjEEiRKT_S6_EEE14SaveLastSearchERKjj @4376
    _ZNK14DataStructures3MapIjN6RakNet15FLR_MemoryBlockEXadL_ZNS_23defaultMapKeyComparisonIjEEiRKT_S6_EEE20HasSavedSearchResultERKj @4377
    _ZNK14DataStructures3MapIjN6RakNet15FLR_MemoryBlockEXadL_ZNS_23defaultMapKeyComparisonIjEEiRKT_S6_EEE3GetERKj @4378
    _ZNK14DataStructures3MapIjN6RakNet15FLR_MemoryBlockEXadL_ZNS_23defaultMapKeyComparisonIjEEiRKT_S6_EEE3HasERKj @4379
    _ZNK14DataStructures3MapIjN6RakNet15FLR_MemoryBlockEXadL_ZNS_23defaultMapKeyComparisonIjEEiRKT_S6_EEE4SizeEv @4380
    _ZNK14DataStructures3MapIjN6RakNet15FLR_MemoryBlockEXadL_ZNS_23defaultMapKeyComparisonIjEEiRKT_S6_EEEixEj @4381
    _ZNK14DataStructures3MapItPN6RakNet16FileListReceiverEXadL_ZNS_23defaultMapKeyComparisonItEEiRKT_S7_EEE14SaveLastSearchERKtj @4382
    _ZNK14DataStructures3MapItPN6RakNet16FileListReceiverEXadL_ZNS_23defaultMapKeyComparisonItEEiRKT_S7_EEE20HasSavedSearchResultERKt @4383
    _ZNK14DataStructures3MapItPN6RakNet16FileListReceiverEXadL_ZNS_23defaultMapKeyComparisonItEEiRKT_S7_EEE3GetERKt @4384
    _ZNK14DataStructures3MapItPN6RakNet16FileListReceiverEXadL_ZNS_23defaultMapKeyComparisonItEEiRKT_S7_EEE3HasERKt @4385
    _ZNK14DataStructures3MapItPN6RakNet16FileListReceiverEXadL_ZNS_23defaultMapKeyComparisonItEEiRKT_S7_EEE4SizeEv @4386
    _ZNK14DataStructures3MapItPN6RakNet16FileListReceiverEXadL_ZNS_23defaultMapKeyComparisonItEEiRKT_S7_EEEixEj @4387
    _ZNK14DataStructures4HashIN6RakNet10RakNetGUIDEPNS1_11CloudServer17RemoteCloudClientELj2048EXadL_ZNS2_8ToUint32ERKS2_EEE9GetAsListERNS_4ListIS5_EERNS9_IS2_EEPKcj @4388
    _ZNK14DataStructures4HashIN6RakNet13AddressOrGUIDENS1_14FilteredSystemELj2048EXadL_ZNS2_9ToIntegerERKS2_EEE4SizeEv @4389
    _ZNK14DataStructures4HashIN6RakNet13AddressOrGUIDENS1_14FilteredSystemELj2048EXadL_ZNS2_9ToIntegerERKS2_EEE9GetAsListERNS_4ListIS3_EERNS7_IS2_EEPKcj @4390
    _ZNK14DataStructures4HashIN6RakNet9RakStringEPNS1_11RelayPlugin17StrAndGuidAndRoomELj8096EXadL_ZNS2_9ToIntegerERKS2_EEE9GetAsListERNS_4ListIS5_EERNS9_IS2_EEPKcj @4391
    _ZNK14DataStructures4HashIN6RakNet9RakStringEPNS1_17StatisticsHistory17TimeAndValueQueueELj32EXadL_ZNS2_9ToIntegerERKS2_EEE9GetAsListERNS_4ListIS5_EERNS9_IS2_EEPKcj @4392
    _ZNK14DataStructures4HashIN6RakNet9RakStringEPNS1_4RPC49LocalSlotELj256EXadL_ZNS2_9ToIntegerERKS2_EEE9GetAsListERNS_4ListIS5_EERNS9_IS2_EEPKcj @4393
    _ZNK14DataStructures4HeapIyPN6RakNet14InternalPacketELb0EE10PeekWeightEj @4394
    _ZNK14DataStructures4HeapIyPN6RakNet14InternalPacketELb0EE10RightChildEj @4395
    _ZNK14DataStructures4HeapIyPN6RakNet14InternalPacketELb0EE4PeekEj @4396
    _ZNK14DataStructures4HeapIyPN6RakNet14InternalPacketELb0EE4SizeEv @4397
    _ZNK14DataStructures4HeapIyPN6RakNet14InternalPacketELb0EE6ParentEj @4398
    _ZNK14DataStructures4HeapIyPN6RakNet14InternalPacketELb0EE9LeftChildEj @4399
    _ZNK14DataStructures4HeapIyPN6RakNet14InternalPacketELb0EEixEj @4400
    _ZNK14DataStructures4ListI10StrAndBoolE4SizeEv @4401
    _ZNK14DataStructures4ListI10StrAndBoolEixEj @4402
    _ZNK14DataStructures4ListIN17VariadicSQLParser12IndexAndTypeEE4SizeEv @4403
    _ZNK14DataStructures4ListIN17VariadicSQLParser12IndexAndTypeEEixEj @4404
    _ZNK14DataStructures4ListIN6RakNet10RakNetGUIDEE10GetIndexOfERKS2_ @4405
    _ZNK14DataStructures4ListIN6RakNet10RakNetGUIDEE4SizeEv @4406
    _ZNK14DataStructures4ListIN6RakNet10RakNetGUIDEEixEj @4407
    _ZNK14DataStructures4ListIN6RakNet10ReadyEvent12RemoteSystemEE4SizeEv @4408
    _ZNK14DataStructures4ListIN6RakNet10ReadyEvent12RemoteSystemEEixEj @4409
    _ZNK14DataStructures4ListIN6RakNet11RelayPlugin10StrAndGuidEE4SizeEv @4410
    _ZNK14DataStructures4ListIN6RakNet11RelayPlugin10StrAndGuidEEixEj @4411
    _ZNK14DataStructures4ListIN6RakNet12FileListNodeEE4SizeEv @4412
    _ZNK14DataStructures4ListIN6RakNet12FileListNodeEEixEj @4413
    _ZNK14DataStructures4ListIN6RakNet12TeamBalancer10TeamMemberEE4SizeEv @4414
    _ZNK14DataStructures4ListIN6RakNet12TeamBalancer10TeamMemberEEixEj @4415
    _ZNK14DataStructures4ListIN6RakNet12TeamBalancer13MyTeamMembersEE4SizeEv @4416
    _ZNK14DataStructures4ListIN6RakNet12TeamBalancer13MyTeamMembersEEixEj @4417
    _ZNK14DataStructures4ListIN6RakNet13AddressOrGUIDEEixEj @4418
    _ZNK14DataStructures4ListIN6RakNet13SystemAddressEE10GetIndexOfERKS2_ @4419
    _ZNK14DataStructures4ListIN6RakNet13SystemAddressEE4SizeEv @4420
    _ZNK14DataStructures4ListIN6RakNet13SystemAddressEEixEj @4421
    _ZNK14DataStructures4ListIN6RakNet13TM_TeamMember13RequestedTeamEE4SizeEv @4422
    _ZNK14DataStructures4ListIN6RakNet13TM_TeamMember13RequestedTeamEEixEj @4423
    _ZNK14DataStructures4ListIN6RakNet14FilteredSystemEE4SizeEv @4424
    _ZNK14DataStructures4ListIN6RakNet14FilteredSystemEEixEj @4425
    _ZNK14DataStructures4ListIN6RakNet14UDPProxyClient14ServerWithPingEE4SizeEv @4426
    _ZNK14DataStructures4ListIN6RakNet14UDPProxyClient14ServerWithPingEEixEj @4427
    _ZNK14DataStructures4ListIN6RakNet16ConnectionGraph220SystemAddressAndGuidEE4SizeEv @4428
    _ZNK14DataStructures4ListIN6RakNet16ConnectionGraph220SystemAddressAndGuidEEixEj @4429
    _ZNK14DataStructures4ListIN6RakNet16LogCommandParser23SystemAddressAndChannelEE4SizeEv @4430
    _ZNK14DataStructures4ListIN6RakNet16LogCommandParser23SystemAddressAndChannelEEixEj @4431
    _ZNK14DataStructures4ListIN6RakNet16RakNetStatisticsEEixEj @4432
    _ZNK14DataStructures4ListIN6RakNet16ReliabilityLayer28UnreliableWithAckReceiptNodeEE4SizeEv @4433
    _ZNK14DataStructures4ListIN6RakNet16ReliabilityLayer28UnreliableWithAckReceiptNodeEEixEj @4434
    _ZNK14DataStructures4ListIN6RakNet17RegisteredCommandEE4SizeEv @4435
    _ZNK14DataStructures4ListIN6RakNet17RegisteredCommandEEixEj @4436
    _ZNK14DataStructures4ListIN6RakNet19FullyConnectedMesh228VerifiedJoinInProgressMemberEE4SizeEv @4437
    _ZNK14DataStructures4ListIN6RakNet19FullyConnectedMesh228VerifiedJoinInProgressMemberEEixEj @4438
    _ZNK14DataStructures4ListIN6RakNet19UDPProxyCoordinator14ServerWithPingEE4SizeEv @4439
    _ZNK14DataStructures4ListIN6RakNet19UDPProxyCoordinator14ServerWithPingEEixEj @4440
    _ZNK14DataStructures4ListIN6RakNet21NatPunchthroughClient11AddrAndGuidEE4SizeEv @4441
    _ZNK14DataStructures4ListIN6RakNet21NatPunchthroughClient11AddrAndGuidEEixEj @4442
    _ZNK14DataStructures4ListIN6RakNet22NatTypeDetectionServer19NATDetectionAttemptEE4SizeEv @4443
    _ZNK14DataStructures4ListIN6RakNet22NatTypeDetectionServer19NATDetectionAttemptEEixEj @4444
    _ZNK14DataStructures4ListIN6RakNet24VariableListDeltaTracker21VariableLastValueNodeEE4SizeEv @4445
    _ZNK14DataStructures4ListIN6RakNet24VariableListDeltaTracker21VariableLastValueNodeEEixEj @4446
    _ZNK14DataStructures4ListIN6RakNet4RPC415LocalSlotObjectEE4SizeEv @4447
    _ZNK14DataStructures4ListIN6RakNet4RPC415LocalSlotObjectEEixEj @4448
    _ZNK14DataStructures4ListIN6RakNet7Router216MiniPunchRequestEE4SizeEv @4449
    _ZNK14DataStructures4ListIN6RakNet7Router216MiniPunchRequestEEixEj @4450
    _ZNK14DataStructures4ListIN6RakNet7Router219ForwardedConnectionEE4SizeEv @4451
    _ZNK14DataStructures4ListIN6RakNet7Router219ForwardedConnectionEEixEj @4452
    _ZNK14DataStructures4ListIN6RakNet7Router223ConnectionRequestSystemEE4SizeEv @4453
    _ZNK14DataStructures4ListIN6RakNet7Router223ConnectionRequestSystemEEixEj @4454
    _ZNK14DataStructures4ListIN6RakNet8CloudKeyEE4SizeEv @4455
    _ZNK14DataStructures4ListIN6RakNet8CloudKeyEEixEj @4456
    _ZNK14DataStructures4ListIN6RakNet8TM_World17JoinRequestHelperEE4SizeEv @4457
    _ZNK14DataStructures4ListIN6RakNet8TM_World17JoinRequestHelperEEixEj @4458
    _ZNK14DataStructures4ListIN6RakNet9Rackspace18RackspaceOperationEE4SizeEv @4459
    _ZNK14DataStructures4ListIN6RakNet9Rackspace18RackspaceOperationEEixEj @4460
    _ZNK14DataStructures4ListIN6RakNet9RakStringEE4SizeEv @4461
    _ZNK14DataStructures4ListIN6RakNet9RakStringEEixEj @4462
    _ZNK14DataStructures4ListINS_3MapIN6RakNet13SystemAddressEPNS_9ByteQueueEXadL_ZNS_23defaultMapKeyComparisonIS3_EEiRKT_S9_EEE7MapNodeEE4SizeEv @4463
    _ZNK14DataStructures4ListINS_3MapIN6RakNet13SystemAddressEPNS_9ByteQueueEXadL_ZNS_23defaultMapKeyComparisonIS3_EEiRKT_S9_EEE7MapNodeEEixEj @4464
    _ZNK14DataStructures4ListINS_3MapIiPN6RakNet19HuffmanEncodingTreeEXadL_ZNS_23defaultMapKeyComparisonIiEEiRKT_S8_EEE7MapNodeEE4SizeEv @4465
    _ZNK14DataStructures4ListINS_3MapIiPN6RakNet19HuffmanEncodingTreeEXadL_ZNS_23defaultMapKeyComparisonIiEEiRKT_S8_EEE7MapNodeEEixEj @4466
    _ZNK14DataStructures4ListINS_3MapIjN6RakNet15FLR_MemoryBlockEXadL_ZNS_23defaultMapKeyComparisonIjEEiRKT_S7_EEE7MapNodeEE4SizeEv @4467
    _ZNK14DataStructures4ListINS_3MapIjN6RakNet15FLR_MemoryBlockEXadL_ZNS_23defaultMapKeyComparisonIjEEiRKT_S7_EEE7MapNodeEEixEj @4468
    _ZNK14DataStructures4ListINS_3MapItPN6RakNet16FileListReceiverEXadL_ZNS_23defaultMapKeyComparisonItEEiRKT_S8_EEE7MapNodeEE4SizeEv @4469
    _ZNK14DataStructures4ListINS_3MapItPN6RakNet16FileListReceiverEXadL_ZNS_23defaultMapKeyComparisonItEEiRKT_S8_EEE7MapNodeEEixEj @4470
    _ZNK14DataStructures4ListINS_4HeapIyPN6RakNet14InternalPacketELb0EE8HeapNodeEE4SizeEv @4471
    _ZNK14DataStructures4ListINS_4HeapIyPN6RakNet14InternalPacketELb0EE8HeapNodeEEixEj @4472
    _ZNK14DataStructures4ListINS_5Table16ColumnDescriptorEE4SizeEv @4473
    _ZNK14DataStructures4ListINS_5Table16ColumnDescriptorEEixEj @4474
    _ZNK14DataStructures4ListINS_5Table4CellEE4SizeEv @4475
    _ZNK14DataStructures4ListINS_5Table4CellEEixEj @4476
    _ZNK14DataStructures4ListINS_9RangeNodeIN6RakNet8uint24_tEEEE4SizeEv @4477
    _ZNK14DataStructures4ListINS_9RangeNodeIN6RakNet8uint24_tEEEEixEj @4478
    _ZNK14DataStructures4ListIPN6RakNet10ReadyEvent14ReadyEventNodeEE4SizeEv @4479
    _ZNK14DataStructures4ListIPN6RakNet10ReadyEvent14ReadyEventNodeEEixEj @4480
    _ZNK14DataStructures4ListIPN6RakNet11CloudServer10GetRequestEE4SizeEv @4481
    _ZNK14DataStructures4ListIPN6RakNet11CloudServer10GetRequestEEixEj @4482
    _ZNK14DataStructures4ListIPN6RakNet11CloudServer12RemoteServerEE4SizeEv @4483
    _ZNK14DataStructures4ListIPN6RakNet11CloudServer12RemoteServerEEixEj @4484
    _ZNK14DataStructures4ListIPN6RakNet11CloudServer13CloudDataListEE4SizeEv @4485
    _ZNK14DataStructures4ListIPN6RakNet11CloudServer13CloudDataListEEixEj @4486
    _ZNK14DataStructures4ListIPN6RakNet11CloudServer15KeySubscriberIDEE4SizeEv @4487
    _ZNK14DataStructures4ListIPN6RakNet11CloudServer15KeySubscriberIDEEixEj @4488
    _ZNK14DataStructures4ListIPN6RakNet11CloudServer17RemoteCloudClientEE4SizeEv @4489
    _ZNK14DataStructures4ListIPN6RakNet11CloudServer17RemoteCloudClientEEixEj @4490
    _ZNK14DataStructures4ListIPN6RakNet11CloudServer29BufferedGetResponseFromServerEE4SizeEv @4491
    _ZNK14DataStructures4ListIPN6RakNet11CloudServer29BufferedGetResponseFromServerEEixEj @4492
    _ZNK14DataStructures4ListIPN6RakNet11CloudServer9CloudDataEE4SizeEv @4493
    _ZNK14DataStructures4ListIPN6RakNet11CloudServer9CloudDataEEixEj @4494
    _ZNK14DataStructures4ListIPN6RakNet11RelayPlugin17StrAndGuidAndRoomEE4SizeEv @4495
    _ZNK14DataStructures4ListIPN6RakNet11RelayPlugin17StrAndGuidAndRoomEEixEj @4496
    _ZNK14DataStructures4ListIPN6RakNet11RelayPlugin8RP_GroupEE4SizeEv @4497
    _ZNK14DataStructures4ListIPN6RakNet11RelayPlugin8RP_GroupEEixEj @4498
    _ZNK14DataStructures4ListIPN6RakNet12UDPForwarder12ForwardEntryEE4SizeEv @4499
    _ZNK14DataStructures4ListIPN6RakNet12UDPForwarder12ForwardEntryEEixEj @4500
    _ZNK14DataStructures4ListIPN6RakNet13CloudQueryRowEE4SizeEv @4501
    _ZNK14DataStructures4ListIPN6RakNet13CloudQueryRowEEixEj @4502
    _ZNK14DataStructures4ListIPN6RakNet13RakNetSocket2EE4SizeEv @4503
    _ZNK14DataStructures4ListIPN6RakNet13RakNetSocket2EEixEj @4504
    _ZNK14DataStructures4ListIPN6RakNet13TM_TeamMemberEE10GetIndexOfERKS3_ @4505
    _ZNK14DataStructures4ListIPN6RakNet13TM_TeamMemberEE4SizeEv @4506
    _ZNK14DataStructures4ListIPN6RakNet13TM_TeamMemberEEixEj @4507
    _ZNK14DataStructures4ListIPN6RakNet14Connection_RM3EE10GetIndexOfERKS3_ @4508
    _ZNK14DataStructures4ListIPN6RakNet14Connection_RM3EE4SizeEv @4509
    _ZNK14DataStructures4ListIPN6RakNet14Connection_RM3EEixEj @4510
    _ZNK14DataStructures4ListIPN6RakNet14InternalPacketEE4SizeEv @4511
    _ZNK14DataStructures4ListIPN6RakNet14InternalPacketEEixEj @4512
    _ZNK14DataStructures4ListIPN6RakNet14UDPProxyClient15PingServerGroupEE4SizeEv @4513
    _ZNK14DataStructures4ListIPN6RakNet14UDPProxyClient15PingServerGroupEEixEj @4514
    _ZNK14DataStructures4ListIPN6RakNet15HTTPConnection27RequestEE4SizeEv @4515
    _ZNK14DataStructures4ListIPN6RakNet15HTTPConnection27RequestEEixEj @4516
    _ZNK14DataStructures4ListIPN6RakNet15ReplicaManager38RM3WorldEE4SizeEv @4517
    _ZNK14DataStructures4ListIPN6RakNet15ReplicaManager38RM3WorldEEixEj @4518
    _ZNK14DataStructures4ListIPN6RakNet15TelnetTransport12TelnetClientEE4SizeEv @4519
    _ZNK14DataStructures4ListIPN6RakNet15TelnetTransport12TelnetClientEEixEj @4520
    _ZNK14DataStructures4ListIPN6RakNet16ConnectionGraph212RemoteSystemEE4SizeEv @4521
    _ZNK14DataStructures4ListIPN6RakNet16ConnectionGraph212RemoteSystemEEixEj @4522
    _ZNK14DataStructures4ListIPN6RakNet16FileListProgressEE10GetIndexOfERKS3_ @4523
    _ZNK14DataStructures4ListIPN6RakNet16FileListProgressEE4SizeEv @4524
    _ZNK14DataStructures4ListIPN6RakNet16FileListProgressEEixEj @4525
    _ZNK14DataStructures4ListIPN6RakNet16FileListTransfer19FileToPushRecipientEE4SizeEv @4526
    _ZNK14DataStructures4ListIPN6RakNet16FileListTransfer19FileToPushRecipientEEixEj @4527
    _ZNK14DataStructures4ListIPN6RakNet16PluginInterface2EE10GetIndexOfERKS3_ @4528
    _ZNK14DataStructures4ListIPN6RakNet16PluginInterface2EE4SizeEv @4529
    _ZNK14DataStructures4ListIPN6RakNet16PluginInterface2EEixEj @4530
    _ZNK14DataStructures4ListIPN6RakNet17StatisticsHistory13TrackedObjectEE4SizeEv @4531
    _ZNK14DataStructures4ListIPN6RakNet17StatisticsHistory13TrackedObjectEEixEj @4532
    _ZNK14DataStructures4ListIPN6RakNet17StatisticsHistory17TimeAndValueQueueEE4SizeEv @4533
    _ZNK14DataStructures4ListIPN6RakNet17StatisticsHistory17TimeAndValueQueueEEixEj @4534
    _ZNK14DataStructures4ListIPN6RakNet18SplitPacketChannelEE4SizeEv @4535
    _ZNK14DataStructures4ListIPN6RakNet18SplitPacketChannelEEixEj @4536
    _ZNK14DataStructures4ListIPN6RakNet19FullyConnectedMesh215FCM2ParticipantEE4SizeEv @4537
    _ZNK14DataStructures4ListIPN6RakNet19FullyConnectedMesh215FCM2ParticipantEEixEj @4538
    _ZNK14DataStructures4ListIPN6RakNet19FullyConnectedMesh222VerifiedJoinInProgressEE4SizeEv @4539
    _ZNK14DataStructures4ListIPN6RakNet19FullyConnectedMesh222VerifiedJoinInProgressEEixEj @4540
    _ZNK14DataStructures4ListIPN6RakNet19UDPProxyCoordinator17ForwardingRequestEE4SizeEv @4541
    _ZNK14DataStructures4ListIPN6RakNet19UDPProxyCoordinator17ForwardingRequestEEixEj @4542
    _ZNK14DataStructures4ListIPN6RakNet20TwoWayAuthentication27NonceAndRemoteSystemRequestEE4SizeEv @4543
    _ZNK14DataStructures4ListIPN6RakNet20TwoWayAuthentication27NonceAndRemoteSystemRequestEEixEj @4544
    _ZNK14DataStructures4ListIPN6RakNet21NatPunchthroughServer17ConnectionAttemptEE10GetIndexOfERKS4_ @4545
    _ZNK14DataStructures4ListIPN6RakNet21NatPunchthroughServer17ConnectionAttemptEE4SizeEv @4546
    _ZNK14DataStructures4ListIPN6RakNet21NatPunchthroughServer17ConnectionAttemptEEixEj @4547
    _ZNK14DataStructures4ListIPN6RakNet21NatPunchthroughServer4UserEE4SizeEv @4548
    _ZNK14DataStructures4ListIPN6RakNet21NatPunchthroughServer4UserEEixEj @4549
    _ZNK14DataStructures4ListIPN6RakNet22CloudServerQueryFilterEE10GetIndexOfERKS3_ @4550
    _ZNK14DataStructures4ListIPN6RakNet22CloudServerQueryFilterEE4SizeEv @4551
    _ZNK14DataStructures4ListIPN6RakNet22CloudServerQueryFilterEEixEj @4552
    _ZNK14DataStructures4ListIPN6RakNet22CommandParserInterfaceEE4SizeEv @4553
    _ZNK14DataStructures4ListIPN6RakNet22CommandParserInterfaceEEixEj @4554
    _ZNK14DataStructures4ListIPN6RakNet23LastSerializationResultEE4SizeEv @4555
    _ZNK14DataStructures4ListIPN6RakNet23LastSerializationResultEEixEj @4556
    _ZNK14DataStructures4ListIPN6RakNet23Rackspace2EventCallbackEE10GetIndexOfERKS3_ @4557
    _ZNK14DataStructures4ListIPN6RakNet23Rackspace2EventCallbackEE4SizeEv @4558
    _ZNK14DataStructures4ListIPN6RakNet23Rackspace2EventCallbackEEixEj @4559
    _ZNK14DataStructures4ListIPN6RakNet23VariableDeltaSerializer20ChangedVariablesListEE4SizeEv @4560
    _ZNK14DataStructures4ListIPN6RakNet23VariableDeltaSerializer20ChangedVariablesListEEixEj @4561
    _ZNK14DataStructures4ListIPN6RakNet23VariableDeltaSerializer27RemoteSystemVariableHistoryEE4SizeEv @4562
    _ZNK14DataStructures4ListIPN6RakNet23VariableDeltaSerializer27RemoteSystemVariableHistoryEEixEj @4563
    _ZNK14DataStructures4ListIPN6RakNet4RPC413LocalCallbackEE4SizeEv @4564
    _ZNK14DataStructures4ListIPN6RakNet4RPC413LocalCallbackEEixEj @4565
    _ZNK14DataStructures4ListIPN6RakNet4RPC49LocalSlotEE4SizeEv @4566
    _ZNK14DataStructures4ListIPN6RakNet4RPC49LocalSlotEEixEj @4567
    _ZNK14DataStructures4ListIPN6RakNet7RakPeer9BanStructEE4SizeEv @4568
    _ZNK14DataStructures4ListIPN6RakNet7RakPeer9BanStructEEixEj @4569
    _ZNK14DataStructures4ListIPN6RakNet7Router215ConnnectRequestEE4SizeEv @4570
    _ZNK14DataStructures4ListIPN6RakNet7Router215ConnnectRequestEEixEj @4571
    _ZNK14DataStructures4ListIPN6RakNet7TM_TeamEE10GetIndexOfERKS3_ @4572
    _ZNK14DataStructures4ListIPN6RakNet7TM_TeamEE4SizeEv @4573
    _ZNK14DataStructures4ListIPN6RakNet7TM_TeamEEixEj @4574
    _ZNK14DataStructures4ListIPN6RakNet8Replica3EE10GetIndexOfERKS3_ @4575
    _ZNK14DataStructures4ListIPN6RakNet8Replica3EE4SizeEv @4576
    _ZNK14DataStructures4ListIPN6RakNet8Replica3EEixEj @4577
    _ZNK14DataStructures4ListIPN6RakNet8TM_WorldEE4SizeEv @4578
    _ZNK14DataStructures4ListIPN6RakNet8TM_WorldEEixEj @4579
    _ZNK14DataStructures4ListIPN6RakNet9FilterSetEE4SizeEv @4580
    _ZNK14DataStructures4ListIPN6RakNet9FilterSetEEixEj @4581
    _ZNK14DataStructures4ListIPN6RakNet9RakString12SharedStringEE4SizeEv @4582
    _ZNK14DataStructures4ListIPN6RakNet9RakString12SharedStringEEixEj @4583
    _ZNK14DataStructures4ListIPNS_5Table3RowEE4SizeEv @4584
    _ZNK14DataStructures4ListIPNS_5Table3RowEEixEj @4585
    _ZNK14DataStructures4ListIPNS_5Table4CellEE4SizeEv @4586
    _ZNK14DataStructures4ListIPNS_5Table4CellEEixEj @4587
    _ZNK14DataStructures4ListIPvE4SizeEv @4588
    _ZNK14DataStructures4ListIPvEixEj @4589
    _ZNK14DataStructures4ListIbE4SizeEv @4590
    _ZNK14DataStructures4ListIbEixEj @4591
    _ZNK14DataStructures4ListIhE4SizeEv @4592
    _ZNK14DataStructures4ListIhEixEj @4593
    _ZNK14DataStructures4ListIiE10GetIndexOfERKi @4594
    _ZNK14DataStructures4ListIiE4SizeEv @4595
    _ZNK14DataStructures4ListIjE10GetIndexOfERKj @4596
    _ZNK14DataStructures4ListIjE4SizeEv @4597
    _ZNK14DataStructures4ListIjEixEj @4598
    _ZNK14DataStructures4ListItE4SizeEv @4599
    _ZNK14DataStructures4ListItEixEj @4600
    _ZNK14DataStructures4ListIyE4SizeEv @4601
    _ZNK14DataStructures4ListIyEixEj @4602
    _ZNK14DataStructures5QueueIN6RakNet10BPSTracker13TimeAndValue2EE4PeekEv @4603
    _ZNK14DataStructures5QueueIN6RakNet10BPSTracker13TimeAndValue2EE7IsEmptyEv @4604
    _ZNK14DataStructures5QueueIN6RakNet12UDPForwarder27StartForwardingOutputStructEE4SizeEv @4605
    _ZNK14DataStructures5QueueIN6RakNet12UDPForwarder27StartForwardingOutputStructEEixEj @4606
    _ZNK14DataStructures5QueueIN6RakNet13SystemAddressEE4SizeEv @4607
    _ZNK14DataStructures5QueueIN6RakNet13SystemAddressEE7IsEmptyEv @4608
    _ZNK14DataStructures5QueueIN6RakNet13SystemAddressEEixEj @4609
    _ZNK14DataStructures5QueueIN6RakNet14HTTPConnection11BadResponseEE4PeekEv @4610
    _ZNK14DataStructures5QueueIN6RakNet14HTTPConnection11BadResponseEE7IsEmptyEv @4611
    _ZNK14DataStructures5QueueIN6RakNet14HTTPConnection15OutgoingCommandEE7IsEmptyEv @4612
    _ZNK14DataStructures5QueueIN6RakNet16FileListTransfer10ThreadDataEE4SizeEv @4613
    _ZNK14DataStructures5QueueIN6RakNet16FileListTransfer10ThreadDataEEixEj @4614
    _ZNK14DataStructures5QueueIN6RakNet16ReliabilityLayer19DatagramHistoryNodeEE4SizeEv @4615
    _ZNK14DataStructures5QueueIN6RakNet16ReliabilityLayer19DatagramHistoryNodeEE7IsEmptyEv @4616
    _ZNK14DataStructures5QueueIN6RakNet16ReliabilityLayer19DatagramHistoryNodeEEixEj @4617
    _ZNK14DataStructures5QueueIN6RakNet17StatisticsHistory12TimeAndValueEE4PeekEv @4618
    _ZNK14DataStructures5QueueIN6RakNet17StatisticsHistory12TimeAndValueEE4SizeEv @4619
    _ZNK14DataStructures5QueueIN6RakNet17StatisticsHistory12TimeAndValueEE8PeekTailEv @4620
    _ZNK14DataStructures5QueueIN6RakNet17StatisticsHistory12TimeAndValueEEixEj @4621
    _ZNK14DataStructures5QueueIN6RakNet20TwoWayAuthentication16PendingChallengeEE4PeekEv @4622
    _ZNK14DataStructures5QueueIN6RakNet20TwoWayAuthentication16PendingChallengeEE4SizeEv @4623
    _ZNK14DataStructures5QueueIN6RakNet20TwoWayAuthentication16PendingChallengeEEixEj @4624
    _ZNK14DataStructures5QueueIN6RakNet21NatPunchthroughClient9DSTAndFacEE7IsEmptyEv @4625
    _ZNK14DataStructures5QueueIN6RakNet9RakStringEE7IsEmptyEv @4626
    _ZNK14DataStructures5QueueIP23HuffmanEncodingTreeNodeE4SizeEv @4627
    _ZNK14DataStructures5QueueIPFiN6RakNet16FileListTransfer10ThreadDataEPbPvEE4SizeEv @4628
    _ZNK14DataStructures5QueueIPN6RakNet12UDPForwarder20StopForwardingStructEE7IsEmptyEv @4629
    _ZNK14DataStructures5QueueIPN6RakNet12UDPForwarder26StartForwardingInputStructEE7IsEmptyEv @4630
    _ZNK14DataStructures5QueueIPN6RakNet13SystemAddressEE4SizeEv @4631
    _ZNK14DataStructures5QueueIPN6RakNet13SystemAddressEE7IsEmptyEv @4632
    _ZNK14DataStructures5QueueIPN6RakNet13SystemAddressEEixEj @4633
    _ZNK14DataStructures5QueueIPN6RakNet14InternalPacketEE4SizeEv @4634
    _ZNK14DataStructures5QueueIPN6RakNet14RNS2RecvStructEE4SizeEv @4635
    _ZNK14DataStructures5QueueIPN6RakNet15HTTPConnection27RequestEE4PeekEv @4636
    _ZNK14DataStructures5QueueIPN6RakNet15HTTPConnection27RequestEE4SizeEv @4637
    _ZNK14DataStructures5QueueIPN6RakNet15HTTPConnection27RequestEEixEj @4638
    _ZNK14DataStructures5QueueIPN6RakNet16FileListTransfer10FileToPushEE4SizeEv @4639
    _ZNK14DataStructures5QueueIPN6RakNet16FileListTransfer10FileToPushEE7IsEmptyEv @4640
    _ZNK14DataStructures5QueueIPN6RakNet16FileListTransfer10FileToPushEEixEj @4641
    _ZNK14DataStructures5QueueIPN6RakNet6PacketEE4SizeEv @4642
    _ZNK14DataStructures5QueueIPN6RakNet6PacketEE7IsEmptyEv @4643
    _ZNK14DataStructures5QueueIPN6RakNet6PacketEEixEj @4644
    _ZNK14DataStructures5QueueIPN6RakNet7RakPeer17SocketQueryOutputEE4SizeEv @4645
    _ZNK14DataStructures5QueueIPN6RakNet7RakPeer17SocketQueryOutputEE7IsEmptyEv @4646
    _ZNK14DataStructures5QueueIPN6RakNet7RakPeer17SocketQueryOutputEEixEj @4647
    _ZNK14DataStructures5QueueIPN6RakNet7RakPeer21BufferedCommandStructEE4SizeEv @4648
    _ZNK14DataStructures5QueueIPN6RakNet7RakPeer21BufferedCommandStructEE7IsEmptyEv @4649
    _ZNK14DataStructures5QueueIPN6RakNet7RakPeer21BufferedCommandStructEEixEj @4650
    _ZNK14DataStructures5QueueIPN6RakNet7RakPeer25RequestedConnectionStructEE4SizeEv @4651
    _ZNK14DataStructures5QueueIPN6RakNet7RakPeer25RequestedConnectionStructEE7IsEmptyEv @4652
    _ZNK14DataStructures5QueueIPN6RakNet7RakPeer25RequestedConnectionStructEEixEj @4653
    _ZNK14DataStructures5QueueIPNS_4PageIjPNS_5Table3RowELi16EEEE4SizeEv @4654
    _ZNK14DataStructures5QueueIPPN6RakNet12RemoteClientEE4SizeEv @4655
    _ZNK14DataStructures5QueueIPPN6RakNet12RemoteClientEEixEj @4656
    _ZNK14DataStructures5QueueIPcE4SizeEv @4657
    _ZNK14DataStructures5QueueIPcEixEj @4658
    _ZNK14DataStructures5QueueIbE14AllocationSizeEv @4659
    _ZNK14DataStructures5QueueIbE4PeekEv @4660
    _ZNK14DataStructures5QueueIbE4SizeEv @4661
    _ZNK14DataStructures5QueueIbEixEj @4662
    _ZNK14DataStructures5QueueIjE4SizeEv @4663
    _ZNK14DataStructures5QueueIjEixEj @4664
    _ZNK14DataStructures5Table10ColumnNameEj @4665
    _ZNK14DataStructures5Table10GetColumnsEv @4666
    _ZNK14DataStructures5Table10GetRowByIDEj @4667
    _ZNK14DataStructures5Table11ColumnIndexEPKc @4668
    _ZNK14DataStructures5Table11ColumnIndexEPc @4669
    _ZNK14DataStructures5Table11GetRowCountEv @4670
    _ZNK14DataStructures5Table13GetColumnTypeEj @4671
    _ZNK14DataStructures5Table13GetRowByIndexEjPj @4672
    _ZNK14DataStructures5Table14GetColumnCountEv @4673
    _ZNK14DataStructures5Table17GetAvailableRowIdEv @4674
    _ZNK14DataStructures5Table18PrintColumnHeadersEPcic @4675
    _ZNK14DataStructures5Table4Cell18EstimateColumnTypeEv @4676
    _ZNK14DataStructures5Table7GetRowsEv @4677
    _ZNK14DataStructures5Table8PrintRowEPcicbPNS0_3RowE @4678
    _ZNK14DataStructures9BPlusTreeIjPNS_5Table3RowELi16EE10GetIndexOfEjPNS_4PageIjS3_Li16EEEPi @4679
    _ZNK14DataStructures9BPlusTreeIjPNS_5Table3RowELi16EE11GetListHeadEv @4680
    _ZNK14DataStructures9BPlusTreeIjPNS_5Table3RowELi16EE14GetLeafFromKeyEj @4681
    _ZNK14DataStructures9BPlusTreeIjPNS_5Table3RowELi16EE3GetEjRS3_ @4682
    _ZNK14DataStructures9BPlusTreeIjPNS_5Table3RowELi16EE4SizeEv @4683
    _ZNK14DataStructures9ByteQueue15GetBytesWrittenEv @4684
    _ZNK14DataStructures9ByteQueue19PeekContiguousBytesEPj @4685
    _ZNK14DataStructures9HashIndex9IsInvalidEv @4686
    _ZNK14DataStructures9RangeListIN6RakNet8uint24_tEE4SizeEv @4687
    _ZNK14GridSectorizer12WorldToCellXEf @4688
    _ZNK14GridSectorizer12WorldToCellYEf @4689
    _ZNK14GridSectorizer20PositionCrossesCellsEffff @4690
    _ZNK14GridSectorizer28WorldToCellXOffsetAndClampedEf @4691
    _ZNK14GridSectorizer28WorldToCellYOffsetAndClampedEf @4692
    _ZNK5CSHA110ReportHashEPcNS_11REPORT_TYPEE @4693
    _ZNK5CSHA113ReportHashStlERNSt7__cxx1112basic_stringIcSt11char_traitsIcESaIcEEENS_11REPORT_TYPEE @4694
    _ZNK5CSHA17GetHashEPh @4695
    _ZNK5CSHA17GetHashEv @4696
    _ZNK6RakNet10BPSTracker9GetTotal1Ev @4697
    _ZNK6RakNet10RakNetGUID8ToStringEPc @4698
    _ZNK6RakNet10RakNetGUID8ToStringEv @4699
    _ZNK6RakNet10RakNetGUIDeqERKS0_ @4700
    _ZNK6RakNet10RakNetGUIDgtERKS0_ @4701
    _ZNK6RakNet10RakNetGUIDltERKS0_ @4702
    _ZNK6RakNet10RakNetGUIDneERKS0_ @4703
    _ZNK6RakNet10RakWString6StrCmpERKS0_ @4704
    _ZNK6RakNet10RakWString7IsEmptyEv @4705
    _ZNK6RakNet10RakWString7StrICmpERKS0_ @4706
    _ZNK6RakNet10RakWString8C_StringEv @4707
    _ZNK6RakNet10RakWString9GetLengthEv @4708
    _ZNK6RakNet10RakWString9SerializeEPNS_9BitStreamE @4709
    _ZNK6RakNet10RakWStringeqERKS0_ @4710
    _ZNK6RakNet10RakWStringgeERKS0_ @4711
    _ZNK6RakNet10RakWStringgtERKS0_ @4712
    _ZNK6RakNet10RakWStringleERKS0_ @4713
    _ZNK6RakNet10RakWStringltERKS0_ @4714
    _ZNK6RakNet10RakWStringneERKS0_ @4715
    _ZNK6RakNet10ReadyEvent15GetEventAtIndexEj @4716
    _ZNK6RakNet10ReadyEvent16GetEventListSizeEv @4717
    _ZNK6RakNet10ReadyEvent16IsEventCompletedEi @4718
    _ZNK6RakNet10ReadyEvent21GetRemoteWaitListSizeEi @4719
    _ZNK6RakNet10ReadyEvent22GetFromWaitListAtIndexEij @4720
    _ZNK6RakNet10ReadyEvent23IsEventCompletedByIndexEj @4721
    _ZNK6RakNet10ReadyEvent27IsEventCompletionProcessingEi @4722
    _ZNK6RakNet11CloudServer10GetRequest29AllRemoteServersHaveRespondedEv @4723
    _ZNK6RakNet11CloudServer13CloudDataList13IsNotUploadedEv @4724
    _ZNK6RakNet11CloudServer13CloudDataList8IsUnusedEv @4725
    _ZNK6RakNet11CloudServer17RemoteCloudClient8IsUnusedEv @4726
    _ZNK6RakNet11CloudServer9CloudData8IsUnusedEv @4727
    _ZNK6RakNet11TeamManager13GetWorldCountEv @4728
    _ZNK6RakNet11TeamManager14GetWorldWithIdEh @4729
    _ZNK6RakNet11TeamManager15GetWorldAtIndexEj @4730
    _ZNK6RakNet12PacketLogger20UsesReliabilityLayerEv @4731
    _ZNK6RakNet12RNS2_Berkley11GetBindingsEv @4732
    _ZNK6RakNet12RNS2_Berkley9GetSocketEv @4733
    _ZNK6RakNet12TCPInterface10WasStartedEv @4734
    _ZNK6RakNet12TCPInterface17GetConnectionListEPNS_13SystemAddressEPt @4735
    _ZNK6RakNet12TCPInterface18GetConnectionCountEv @4736
    _ZNK6RakNet12TCPInterface25GetOutgoingDataBufferSizeENS_13SystemAddressE @4737
    _ZNK6RakNet12TeamBalancer14GetMemberIndexEyNS_10RakNetGUIDE @4738
    _ZNK6RakNet12TeamBalancer19GetFirstNonFullTeamEv @4739
    _ZNK6RakNet12TeamBalancer22GetSmallestNonFullTeamEv @4740
    _ZNK6RakNet12TeamBalancer9GetMyTeamEy @4741
    _ZNK6RakNet12TeamBalancer9WeAreHostEv @4742
    _ZNK6RakNet12UDPForwarder20GetMaxForwardEntriesEv @4743
    _ZNK6RakNet12UDPForwarder21GetUsedForwardEntriesEv @4744
    _ZNK6RakNet13AddressOrGUID11IsUndefinedEv @4745
    _ZNK6RakNet13AddressOrGUID8ToStringEb @4746
    _ZNK6RakNet13AddressOrGUID8ToStringEbPc @4747
    _ZNK6RakNet13AddressOrGUIDeqERKS0_ @4748
    _ZNK6RakNet13MessageFilter14GetSystemCountEi @4749
    _ZNK6RakNet13MessageFilter17GetFilterSetCountEv @4750
    _ZNK6RakNet13RakNetSocket213GetSocketTypeEv @4751
    _ZNK6RakNet13RakNetSocket215GetBoundAddressEv @4752
    _ZNK6RakNet13RakNetSocket215GetEventHandlerEv @4753
    _ZNK6RakNet13RakNetSocket215IsBerkleySocketEv @4754
    _ZNK6RakNet13RakNetSocket228GetUserConnectionSocketIndexEv @4755
    _ZNK6RakNet13SystemAddress10GetIPPROTOEv @4756
    _ZNK6RakNet13SystemAddress10IsLoopbackEv @4757
    _ZNK6RakNet13SystemAddress12GetIPVersionEv @4758
    _ZNK6RakNet13SystemAddress12ToString_OldEbPcc @4759
    _ZNK6RakNet13SystemAddress19EqualsExcludingPortERKS0_ @4760
    _ZNK6RakNet13SystemAddress19GetPortNetworkOrderEv @4761
    _ZNK6RakNet13SystemAddress7GetPortEv @4762
    _ZNK6RakNet13SystemAddress8ToStringEbPcc @4763
    _ZNK6RakNet13SystemAddress8ToStringEbc @4764
    _ZNK6RakNet13SystemAddresseqERKS0_ @4765
    _ZNK6RakNet13SystemAddressgtERKS0_ @4766
    _ZNK6RakNet13SystemAddressltERKS0_ @4767
    _ZNK6RakNet13SystemAddressneERKS0_ @4768
    _ZNK6RakNet13TM_TeamMember11GetNoTeamIdEv @4769
    _ZNK6RakNet13TM_TeamMember11GetTM_WorldEv @4770
    _ZNK6RakNet13TM_TeamMember12GetLastTeamsERN14DataStructures4ListIPNS_7TM_TeamEEE @4771
    _ZNK6RakNet13TM_TeamMember12GetNetworkIDEv @4772
    _ZNK6RakNet13TM_TeamMember13GetWorldIndexEv @4773
    _ZNK6RakNet13TM_TeamMember14GetCurrentTeamEv @4774
    _ZNK6RakNet13TM_TeamMember14LeaveTeamCheckEPNS_7TM_TeamE @4775
    _ZNK6RakNet13TM_TeamMember15GetCurrentTeamsERN14DataStructures4ListIPNS_7TM_TeamEEE @4776
    _ZNK6RakNet13TM_TeamMember16GetRequestedTeamEv @4777
    _ZNK6RakNet13TM_TeamMember16HasRequestedTeamEPNS_7TM_TeamE @4778
    _ZNK6RakNet13TM_TeamMember16JoinAnyTeamCheckEv @4779
    _ZNK6RakNet13TM_TeamMember19GetCurrentTeamCountEv @4780
    _ZNK6RakNet13TM_TeamMember21GetRequestedTeamCountEv @4781
    _ZNK6RakNet13TM_TeamMember21GetRequestedTeamIndexEPNS_7TM_TeamE @4782
    _ZNK6RakNet13TM_TeamMember21JoinSpecificTeamCheckEPNS_7TM_TeamEb @4783
    _ZNK6RakNet13TM_TeamMember23SwitchSpecificTeamCheckEPNS_7TM_TeamES2_b @4784
    _ZNK6RakNet13TM_TeamMember25GetRequestedSpecificTeamsERN14DataStructures4ListIPNS_7TM_TeamEEE @4785
    _ZNK6RakNet13TM_TeamMember8GetOwnerEv @4786
    _ZNK6RakNet13TM_TeamMember8IsOnTeamEPNS_7TM_TeamE @4787
    _ZNK6RakNet14Connection_RM313GetRakNetGUIDEv @4788
    _ZNK6RakNet14Connection_RM313ValidateListsEPNS_15ReplicaManager3E @4789
    _ZNK6RakNet14Connection_RM316GetSystemAddressEv @4790
    _ZNK6RakNet14Connection_RM321QueryConstructionModeEv @4791
    _ZNK6RakNet14Connection_RM323GetDownloadWasCompletedEv @4792
    _ZNK6RakNet14Connection_RM326QueryGroupDownloadMessagesEv @4793
    _ZNK6RakNet14HTTPConnection16GetServerAddressEv @4794
    _ZNK6RakNet14HTTPConnection6IsBusyEv @4795
    _ZNK6RakNet14HTTPConnection7HasReadEv @4796
    _ZNK6RakNet14HTTPConnection8GetStateEv @4797
    _ZNK6RakNet14UDPProxyClient15PingServerGroup19AreAllServersPingedEv @4798
    _ZNK6RakNet15HTTPConnection211HasResponseEv @4799
    _ZNK6RakNet15HTTPConnection26IsBusyEv @4800
    _ZNK6RakNet15NetworkIDObject19GetNetworkIDManagerEv @4801
    _ZNK6RakNet15NetworkIDObject9GetParentEv @4802
    _ZNK6RakNet15ReplicaManager315GetReplicaCountEh @4803
    _ZNK6RakNet15ReplicaManager318GetConnectionCountEh @4804
    _ZNK6RakNet15ReplicaManager319GetConnectionByGUIDENS_10RakNetGUIDEh @4805
    _ZNK6RakNet15ReplicaManager319GetNetworkIDManagerEh @4806
    _ZNK6RakNet15ReplicaManager320GetConnectionAtIndexEjh @4807
    _ZNK6RakNet15ReplicaManager324GetAutoCreateConnectionsEv @4808
    _ZNK6RakNet15ReplicaManager324GetDefaultSendParametersEv @4809
    _ZNK6RakNet15ReplicaManager325GetAutoDestroyConnectionsEv @4810
    _ZNK6RakNet15ReplicaManager328GetConnectionBySystemAddressERKNS_13SystemAddressEh @4811
    _ZNK6RakNet15ReplicaManager334GetAllConnectionDownloadsCompletedEh @4812
    _ZNK6RakNet16ConnectionGraph221GetPingBetweenSystemsENS_10RakNetGUIDES1_ @4813
    _ZNK6RakNet16ConnectionGraph226GetLowestAveragePingSystemEv @4814
    _ZNK6RakNet16ConnectionGraph228GetAutoProcessNewConnectionsEv @4815
    _ZNK6RakNet16LocklessUint32_t8GetValueEv @4816
    _ZNK6RakNet16LogCommandParser13PrintChannelsERKNS_13SystemAddressEPNS_18TransportInterfaceE @4817
    _ZNK6RakNet16LogCommandParser7GetNameEv @4818
    _ZNK6RakNet16PluginInterface216GetMyGUIDUnifiedEv @4819
    _ZNK6RakNet16PluginInterface219GetRakPeerInterfaceEv @4820
    _ZNK6RakNet16PluginInterface220UsesReliabilityLayerEv @4821
    _ZNK6RakNet16RakNetRandomSync12GetCallCountEv @4822
    _ZNK6RakNet16RakNetRandomSync7GetSeedEv @4823
    _ZNK6RakNet16ReliabilityLayer15GetNextSendTimeEv @4824
    _ZNK6RakNet16ReliabilityLayer16IsDeadConnectionEv @4825
    _ZNK6RakNet16ReliabilityLayer18IsResendQueueEmptyEv @4826
    _ZNK6RakNet16ReliabilityLayer18ValidateResendListEv @4827
    _ZNK6RakNet16ReliabilityLayer20ResendBufferOverflowEv @4828
    _ZNK6RakNet16ReliabilityLayer21GetResendListDataSizeEv @4829
    _ZNK6RakNet16ReliabilityLayer21GetTimeBetweenPacketsEv @4830
    _ZNK6RakNet17StatisticsHistory14GetObjectCountEv @4831
    _ZNK6RakNet17StatisticsHistory14GetObjectIndexEy @4832
    _ZNK6RakNet17StatisticsHistory16GetHistoryForKeyEyNS_9RakStringEPPNS0_17TimeAndValueQueueEy @4833
    _ZNK6RakNet17StatisticsHistory16GetHistorySortedEyNS0_15SHSortOperationERN14DataStructures4ListIPNS0_17TimeAndValueQueueEEE @4834
    _ZNK6RakNet17StatisticsHistory16GetObjectAtIndexEj @4835
    _ZNK6RakNet17StatisticsHistory17TimeAndValueQueue12GetRecentSumEv @4836
    _ZNK6RakNet17StatisticsHistory17TimeAndValueQueue12GetTimeRangeEv @4837
    _ZNK6RakNet17StatisticsHistory17TimeAndValueQueue14GetLongTermSumEv @4838
    _ZNK6RakNet17StatisticsHistory17TimeAndValueQueue15GetRecentLowestEv @4839
    _ZNK6RakNet17StatisticsHistory17TimeAndValueQueue15GetSumSinceTimeEy @4840
    _ZNK6RakNet17StatisticsHistory17TimeAndValueQueue16GetRecentAverageEv @4841
    _ZNK6RakNet17StatisticsHistory17TimeAndValueQueue16GetRecentHighestEv @4842
    _ZNK6RakNet17StatisticsHistory17TimeAndValueQueue17GetLongTermLowestEv @4843
    _ZNK6RakNet17StatisticsHistory17TimeAndValueQueue18GetLongTermAverageEv @4844
    _ZNK6RakNet17StatisticsHistory17TimeAndValueQueue18GetLongTermHighestEv @4845
    _ZNK6RakNet17StatisticsHistory17TimeAndValueQueue20GetTimeToTrackValuesEv @4846
    _ZNK6RakNet17StatisticsHistory17TimeAndValueQueue21GetRecentSumOfSquaresEv @4847
    _ZNK6RakNet17StatisticsHistory17TimeAndValueQueue26GetRecentStandardDeviationEv @4848
    _ZNK6RakNet17StatisticsHistory20MergeAllObjectsOnKeyENS_9RakStringEPNS0_17TimeAndValueQueueENS0_14SHDataCategoryE @4849
    _ZNK6RakNet17StatisticsHistory21GetDefaultTimeToTrackEv @4850
    _ZNK6RakNet19FullyConnectedMesh212IsHostSystemEv @4851
    _ZNK6RakNet19FullyConnectedMesh213GetHostSystemEv @4852
    _ZNK6RakNet19FullyConnectedMesh215IsConnectedHostEv @4853
    _ZNK6RakNet19FullyConnectedMesh216GetConnectedHostEv @4854
    _ZNK6RakNet19FullyConnectedMesh219GetParticipantCountEPj @4855
    _ZNK6RakNet19FullyConnectedMesh219GetParticipantCountEv @4856
    _ZNK6RakNet19FullyConnectedMesh220GetConnectedHostAddrEv @4857
    _ZNK6RakNet19FullyConnectedMesh223GetJoinsInProgressIndexENS_10RakNetGUIDE @4858
    _ZNK6RakNet19FullyConnectedMesh223GetTotalConnectionCountEv @4859
    _ZNK6RakNet19HuffmanEncodingTree24InsertNodeIntoSortedListEP23HuffmanEncodingTreeNodePN14DataStructures10LinkedListIS2_EE @4860
    _ZNK6RakNet19RakNetCommandParser7GetNameEv @4861
    _ZNK6RakNet21CCRakNetSlidingWindow13IsInSlowStartEv @4862
    _ZNK6RakNet21CCRakNetSlidingWindow16GetIsInSlowStartEv @4863
    _ZNK6RakNet21CCRakNetSlidingWindow18GetSenderRTOForACKEv @4864
    _ZNK6RakNet21CCRakNetSlidingWindow19GetLocalReceiveRateEy @4865
    _ZNK6RakNet21CCRakNetSlidingWindow23GetRTOForRetransmissionEh @4866
    _ZNK6RakNet21CCRakNetSlidingWindow41GetBytesPerSecondLimitByCongestionControlEv @4867
    _ZNK6RakNet21CCRakNetSlidingWindow6GetMTUEv @4868
    _ZNK6RakNet21CCRakNetSlidingWindow6GetRTTEv @4869
    _ZNK6RakNet22DirectoryDeltaTransfer25GetNumberOfFilesForUploadEv @4870
    _ZNK6RakNet22NatTypeDetectionClient12IsInProgressEv @4871
    _ZNK6RakNet3PROeqERKS0_ @4872
    _ZNK6RakNet3PROneERKS0_ @4873
    _ZNK6RakNet7RakPeer10GetMTUSizeENS_13SystemAddressE @4874
    _ZNK6RakNet7RakPeer11GetLastPingENS_13AddressOrGUIDE @4875
    _ZNK6RakNet7RakPeer13GetExternalIDENS_13SystemAddressE @4876
    _ZNK6RakNet7RakPeer13GetInternalIDENS_13SystemAddressEi @4877
    _ZNK6RakNet7RakPeer13GetLowestPingENS_13AddressOrGUIDE @4878
    _ZNK6RakNet7RakPeer13GetSystemListERN14DataStructures4ListINS_13SystemAddressEEERNS2_INS_10RakNetGUIDEEE @4879
    _ZNK6RakNet7RakPeer15GetRemoteSystemENS_13AddressOrGUIDEbb @4880
    _ZNK6RakNet7RakPeer15GetRemoteSystemERKNS_13SystemAddressE @4881
    _ZNK6RakNet7RakPeer17GetConnectionListEPNS_13SystemAddressEPt @4882
    _ZNK6RakNet7RakPeer17IsLoopbackAddressERKNS_13AddressOrGUIDEb @4883
    _ZNK6RakNet7RakPeer18GetLoopbackAddressEv @4884
    _ZNK6RakNet7RakPeer19NumberOfConnectionsEv @4885
    _ZNK6RakNet7RakPeer20GetRemoteSystemIndexERKNS_13SystemAddressE @4886
    _ZNK6RakNet7RakPeer22GetSystemIndexFromGuidENS_10RakNetGUIDE @4887
    _ZNK6RakNet7RakPeer22ShiftIncomingTimestampEPhRKNS_13SystemAddressE @4888
    _ZNK6RakNet7RakPeer23GetClockDifferentialIntEPNS0_18RemoteSystemStructE @4889
    _ZNK6RakNet7RakPeer23GetMaximumNumberOfPeersEv @4890
    _ZNK6RakNet7RakPeer23GetRemoteSystemFromGUIDENS_10RakNetGUIDEb @4891
    _ZNK6RakNet7RakPeer24AllowIncomingConnectionsEv @4892
    _ZNK6RakNet7RakPeer24GetBestClockDifferentialENS_13SystemAddressE @4893
    _ZNK6RakNet7RakPeer24GetGuidFromSystemAddressENS_13SystemAddressE @4894
    _ZNK6RakNet7RakPeer24GetSystemAddressFromGuidENS_10RakNetGUIDE @4895
    _ZNK6RakNet7RakPeer25GetIndexFromSystemAddressENS_13SystemAddressE @4896
    _ZNK6RakNet7RakPeer25GetIndexFromSystemAddressENS_13SystemAddressEb @4897
    _ZNK6RakNet7RakPeer26ValidateRemoteSystemLookupEv @4898
    _ZNK6RakNet7RakPeer27RemoteSystemLookupHashIndexERKNS_13SystemAddressE @4899
    _ZNK6RakNet7RakPeer29GetMaximumIncomingConnectionsEv @4900
    _ZNK6RakNet7RakPeer31GetSplitMessageProgressIntervalEv @4901
    _ZNK6RakNet7RakPeer32GetRemoteSystemFromSystemAddressENS_13SystemAddressEbb @4902
    _ZNK6RakNet7RakPeer35GetClientPublicKeyFromSystemAddressENS_13SystemAddressEPc @4903
    _ZNK6RakNet7RakPeer37GetNumberOfRemoteInitiatedConnectionsEv @4904
    _ZNK6RakNet7RakPeer44GetRakNetSocketFromUserConnectionSocketIndexEj @4905
    _ZNK6RakNet7RakPeer8IsActiveEv @4906
    _ZNK6RakNet7RakPeer9GetMyGUIDEv @4907
    _ZNK6RakNet7Router217GetDebugInterfaceEv @4908
    _ZNK6RakNet7Router235GetLargestPingAmongConnectedSystemsEv @4909
    _ZNK6RakNet7TM_Team11GetTM_WorldEv @4910
    _ZNK6RakNet7TM_Team12GetNetworkIDEv @4911
    _ZNK6RakNet7TM_Team13GetWorldIndexEv @4912
    _ZNK6RakNet7TM_Team14GetMemberLimitEv @4913
    _ZNK6RakNet7TM_Team14GetTeamMembersERN14DataStructures4ListIPNS_13TM_TeamMemberEEE @4914
    _ZNK6RakNet7TM_Team18GetJoinPermissionsEv @4915
    _ZNK6RakNet7TM_Team19GetBalancingAppliesEv @4916
    _ZNK6RakNet7TM_Team19GetTeamMembersCountEv @4917
    _ZNK6RakNet7TM_Team20GetTeamMemberByIndexEj @4918
    _ZNK6RakNet7TM_Team21GetMemberLimitSettingEv @4919
    _ZNK6RakNet7TM_Team8GetOwnerEv @4920
    _ZNK6RakNet8Replica321GetCreatingSystemGUIDEv @4921
    _ZNK6RakNet8Replica321QueryRelayDestructionEPNS_14Connection_RM3E @4922
    _ZNK6RakNet8Replica333QueryActionOnPopConnection_ClientEPNS_14Connection_RM3E @4923
    _ZNK6RakNet8Replica333QueryActionOnPopConnection_ServerEPNS_14Connection_RM3E @4924
    _ZNK6RakNet8Replica337QueryActionOnPopConnection_PeerToPeerEPNS_14Connection_RM3E @4925
    _ZNK6RakNet8TM_World10GetWorldIdEv @4926
    _ZNK6RakNet8TM_World12GetTeamCountEv @4927
    _ZNK6RakNet8TM_World12GetTeamIndexEPKNS_7TM_TeamE @4928
    _ZNK6RakNet8TM_World14GetTeamByIndexEj @4929
    _ZNK6RakNet8TM_World14GetTeamManagerEv @4930
    _ZNK6RakNet8TM_World15GetBalanceTeamsEv @4931
    _ZNK6RakNet8TM_World18GetTeamMemberCountEv @4932
    _ZNK6RakNet8TM_World18GetTeamMemberIndexEPKNS_13TM_TeamMemberE @4933
    _ZNK6RakNet8TM_World20GetBalancedTeamLimitEv @4934
    _ZNK6RakNet8TM_World20GetTeamMemberByIndexEj @4935
    _ZNK6RakNet8TM_World22GetTeamMemberIDByIndexEj @4936
    _ZNK6RakNet8TM_World7GetHostEv @4937
    _ZNK6RakNet8uint24_tcvjEv @4938
    _ZNK6RakNet8uint24_tdvERKS0_ @4939
    _ZNK6RakNet8uint24_teqERKS0_ @4940
    _ZNK6RakNet8uint24_tgtERKS0_ @4941
    _ZNK6RakNet8uint24_tltERKS0_ @4942
    _ZNK6RakNet8uint24_tmiERKS0_ @4943
    _ZNK6RakNet8uint24_tmiERKj @4944
    _ZNK6RakNet8uint24_tneERKS0_ @4945
    _ZNK6RakNet8uint24_tplERKS0_ @4946
    _ZNK6RakNet8uint24_tplERKj @4947
    _ZNK6RakNet9BitStream13GetReadOffsetEv @4948
    _ZNK6RakNet9BitStream14GetWriteOffsetEv @4949
    _ZNK6RakNet9BitStream19GetNumberOfBitsUsedEv @4950
    _ZNK6RakNet9BitStream20GetNumberOfBytesUsedEv @4951
    _ZNK6RakNet9BitStream21GetNumberOfUnreadBitsEv @4952
    _ZNK6RakNet9BitStream24GetNumberOfBitsAllocatedEv @4953
    _ZNK6RakNet9BitStream7GetDataEv @4954
    _ZNK6RakNet9BitStream8CopyDataEPPh @4955
    _ZNK6RakNet9BitStream8PrintHexEPc @4956
    _ZNK6RakNet9BitStream8PrintHexEv @4957
    _ZNK6RakNet9BitStream9PrintBitsEPc @4958
    _ZNK6RakNet9BitStream9PrintBitsEv @4959
    _ZNK6RakNet9RakString13GetLengthUTF8Ev @4960
    _ZNK6RakNet9RakString14IsEmailAddressEv @4961
    _ZNK6RakNet9RakString19SerializeCompressedEPNS_9BitStreamEhb @4962
    _ZNK6RakNet9RakString32ContainsNonprintableExceptSpacesEv @4963
    _ZNK6RakNet9RakString6StrCmpERKS0_ @4964
    _ZNK6RakNet9RakString6SubStrEjj @4965
    _ZNK6RakNet9RakString7IsEmptyEv @4966
    _ZNK6RakNet9RakString7StrICmpERKS0_ @4967
    _ZNK6RakNet9RakString7StrNCmpERKS0_j @4968
    _ZNK6RakNet9RakString8C_StringEv @4969
    _ZNK6RakNet9RakString9GetLengthEv @4970
    _ZNK6RakNet9RakString9SerializeEPNS_9BitStreamE @4971
    _ZNK6RakNet9RakStringcvPKcEv @4972
    _ZNK6RakNet9RakStringeqEPKc @4973
    _ZNK6RakNet9RakStringeqEPc @4974
    _ZNK6RakNet9RakStringeqERKS0_ @4975
    _ZNK6RakNet9RakStringgeERKS0_ @4976
    _ZNK6RakNet9RakStringgtERKS0_ @4977
    _ZNK6RakNet9RakStringixEj @4978
    _ZNK6RakNet9RakStringleERKS0_ @4979
    _ZNK6RakNet9RakStringltERKS0_ @4980
    _ZNK6RakNet9RakStringneEPKc @4981
    _ZNK6RakNet9RakStringneEPc @4982
    _ZNK6RakNet9RakStringneERKS0_ @4983
    _ZSt3absd @4984
    _ZSt4ceilf @4985
    _ZTI11DDTCallback @4986 DATA
    _ZTIN6RakNet10FLP_PrintfE @4987 DATA
    _ZTIN6RakNet10ReadyEventE @4988 DATA
    _ZTIN6RakNet11CloudClientE @4989 DATA
    _ZTIN6RakNet11CloudServerE @4990 DATA
    _ZTIN6RakNet11RelayPluginE @4991 DATA
    _ZTIN6RakNet11TeamManagerE @4992 DATA
    _ZTIN6RakNet12PacketLoggerE @4993 DATA
    _ZTIN6RakNet12RNS2_BerkleyE @4994 DATA
    _ZTIN6RakNet12RNS2_WindowsE @4995 DATA
    _ZTIN6RakNet12TCPInterfaceE @4996 DATA
    _ZTIN6RakNet12TeamBalancerE @4997 DATA
    _ZTIN6RakNet12UDPForwarderE @4998 DATA
    _ZTIN6RakNet13IRNS2_BerkleyE @4999 DATA
    _ZTIN6RakNet13MessageFilterE @5000 DATA
    _ZTIN6RakNet13PacketizedTCPE @5001 DATA
    _ZTIN6RakNet13RakNetSocket2E @5002 DATA
    _ZTIN6RakNet13TM_TeamMemberE @5003 DATA
    _ZTIN6RakNet14CloudAllocatorE @5004 DATA
    _ZTIN6RakNet14Connection_RM3E @5005 DATA
    _ZTIN6RakNet14HTTPConnectionE @5006 DATA
    _ZTIN6RakNet14UDPProxyClientE @5007 DATA
    _ZTIN6RakNet14UDPProxyServerE @5008 DATA
    _ZTIN6RakNet15HTTPConnection2E @5009 DATA
    _ZTIN6RakNet15NetworkIDObjectE @5010 DATA
    _ZTIN6RakNet15ReplicaManager3E @5011 DATA
    _ZTIN6RakNet15TelnetTransportE @5012 DATA
    _ZTIN6RakNet16ConnectionGraph2E @5013 DATA
    _ZTIN6RakNet16FileListProgressE @5014 DATA
    _ZTIN6RakNet16FileListTransferE @5015 DATA
    _ZTIN6RakNet16LogCommandParserE @5016 DATA
    _ZTIN6RakNet16NetworkIDManagerE @5017 DATA
    _ZTIN6RakNet16PacketFileLoggerE @5018 DATA
    _ZTIN6RakNet16PluginInterface2E @5019 DATA
    _ZTIN6RakNet16RNS2EventHandlerE @5020 DATA
    _ZTIN6RakNet16RakNetRandomSyncE @5021 DATA
    _ZTIN6RakNet16RakNetTransport2E @5022 DATA
    _ZTIN6RakNet16RakPeerInterfaceE @5023 DATA
    _ZTIN6RakNet17StatisticsHistoryE @5024 DATA
    _ZTIN6RakNet18TransportInterfaceE @5025 DATA
    _ZTIN6RakNet19FullyConnectedMesh2E @5026 DATA
    _ZTIN6RakNet19PacketConsoleLoggerE @5027 DATA
    _ZTIN6RakNet19RakNetCommandParserE @5028 DATA
    _ZTIN6RakNet19UDPProxyCoordinatorE @5029 DATA
    _ZTIN6RakNet20TwoWayAuthenticationE @5030 DATA
    _ZTIN6RakNet21NatPunchthroughClientE @5031 DATA
    _ZTIN6RakNet21NatPunchthroughServerE @5032 DATA
    _ZTIN6RakNet21Router2DebugInterfaceE @5033 DATA
    _ZTIN6RakNet22CommandParserInterfaceE @5034 DATA
    _ZTIN6RakNet22DirectoryDeltaTransferE @5035 DATA
    _ZTIN6RakNet22NatTypeDetectionClientE @5036 DATA
    _ZTIN6RakNet22NatTypeDetectionServerE @5037 DATA
    _ZTIN6RakNet22RNS2_Windows_Linux_360E @5038 DATA
    _ZTIN6RakNet22ThreadsafePacketLoggerE @5039 DATA
    _ZTIN6RakNet23StatisticsHistoryPluginE @5040 DATA
    _ZTIN6RakNet24IncrementalReadInterfaceE @5041 DATA
    _ZTIN6RakNet24PacketOutputWindowLoggerE @5042 DATA
    _ZTIN6RakNet27FileListTransferCBInterfaceE @5043 DATA
    _ZTIN6RakNet29NatPunchthroughDebugInterfaceE @5044 DATA
    _ZTIN6RakNet35NatPunchthroughServerDebugInterfaceE @5045 DATA
    _ZTIN6RakNet36NatPunchthroughDebugInterface_PrintfE @5046 DATA
    _ZTIN6RakNet42NatPunchthroughDebugInterface_PacketLoggerE @5047 DATA
    _ZTIN6RakNet42NatPunchthroughServerDebugInterface_PrintfE @5048 DATA
    _ZTIN6RakNet48NatPunchthroughServerDebugInterface_PacketLoggerE @5049 DATA
    _ZTIN6RakNet4RPC4E @5050 DATA
    _ZTIN6RakNet7RakPeerE @5051 DATA
    _ZTIN6RakNet7Router2E @5052 DATA
    _ZTIN6RakNet7TM_TeamE @5053 DATA
    _ZTIN6RakNet8Replica3E @5054 DATA
    _ZTIN6RakNet8TM_WorldE @5055 DATA
    _ZTS11DDTCallback @5056 DATA
    _ZTSN6RakNet10FLP_PrintfE @5057 DATA
    _ZTSN6RakNet10ReadyEventE @5058 DATA
    _ZTSN6RakNet11CloudClientE @5059 DATA
    _ZTSN6RakNet11CloudServerE @5060 DATA
    _ZTSN6RakNet11RelayPluginE @5061 DATA
    _ZTSN6RakNet11TeamManagerE @5062 DATA
    _ZTSN6RakNet12PacketLoggerE @5063 DATA
    _ZTSN6RakNet12RNS2_BerkleyE @5064 DATA
    _ZTSN6RakNet12RNS2_WindowsE @5065 DATA
    _ZTSN6RakNet12TCPInterfaceE @5066 DATA
    _ZTSN6RakNet12TeamBalancerE @5067 DATA
    _ZTSN6RakNet12UDPForwarderE @5068 DATA
    _ZTSN6RakNet13IRNS2_BerkleyE @5069 DATA
    _ZTSN6RakNet13MessageFilterE @5070 DATA
    _ZTSN6RakNet13PacketizedTCPE @5071 DATA
    _ZTSN6RakNet13RakNetSocket2E @5072 DATA
    _ZTSN6RakNet13TM_TeamMemberE @5073 DATA
    _ZTSN6RakNet14CloudAllocatorE @5074 DATA
    _ZTSN6RakNet14Connection_RM3E @5075 DATA
    _ZTSN6RakNet14HTTPConnectionE @5076 DATA
    _ZTSN6RakNet14UDPProxyClientE @5077 DATA
    _ZTSN6RakNet14UDPProxyServerE @5078 DATA
    _ZTSN6RakNet15HTTPConnection2E @5079 DATA
    _ZTSN6RakNet15NetworkIDObjectE @5080 DATA
    _ZTSN6RakNet15ReplicaManager3E @5081 DATA
    _ZTSN6RakNet15TelnetTransportE @5082 DATA
    _ZTSN6RakNet16ConnectionGraph2E @5083 DATA
    _ZTSN6RakNet16FileListProgressE @5084 DATA
    _ZTSN6RakNet16FileListTransferE @5085 DATA
    _ZTSN6RakNet16LogCommandParserE @5086 DATA
    _ZTSN6RakNet16NetworkIDManagerE @5087 DATA
    _ZTSN6RakNet16PacketFileLoggerE @5088 DATA
    _ZTSN6RakNet16PluginInterface2E @5089 DATA
    _ZTSN6RakNet16RNS2EventHandlerE @5090 DATA
    _ZTSN6RakNet16RakNetRandomSyncE @5091 DATA
    _ZTSN6RakNet16RakNetTransport2E @5092 DATA
    _ZTSN6RakNet16RakPeerInterfaceE @5093 DATA
    _ZTSN6RakNet17StatisticsHistoryE @5094 DATA
    _ZTSN6RakNet18TransportInterfaceE @5095 DATA
    _ZTSN6RakNet19FullyConnectedMesh2E @5096 DATA
    _ZTSN6RakNet19PacketConsoleLoggerE @5097 DATA
    _ZTSN6RakNet19RakNetCommandParserE @5098 DATA
    _ZTSN6RakNet19UDPProxyCoordinatorE @5099 DATA
    _ZTSN6RakNet20TwoWayAuthenticationE @5100 DATA
    _ZTSN6RakNet21NatPunchthroughClientE @5101 DATA
    _ZTSN6RakNet21NatPunchthroughServerE @5102 DATA
    _ZTSN6RakNet21Router2DebugInterfaceE @5103 DATA
    _ZTSN6RakNet22CommandParserInterfaceE @5104 DATA
    _ZTSN6RakNet22DirectoryDeltaTransferE @5105 DATA
    _ZTSN6RakNet22NatTypeDetectionClientE @5106 DATA
    _ZTSN6RakNet22NatTypeDetectionServerE @5107 DATA
    _ZTSN6RakNet22RNS2_Windows_Linux_360E @5108 DATA
    _ZTSN6RakNet22ThreadsafePacketLoggerE @5109 DATA
    _ZTSN6RakNet23StatisticsHistoryPluginE @5110 DATA
    _ZTSN6RakNet24IncrementalReadInterfaceE @5111 DATA
    _ZTSN6RakNet24PacketOutputWindowLoggerE @5112 DATA
    _ZTSN6RakNet27FileListTransferCBInterfaceE @5113 DATA
    _ZTSN6RakNet29NatPunchthroughDebugInterfaceE @5114 DATA
    _ZTSN6RakNet35NatPunchthroughServerDebugInterfaceE @5115 DATA
    _ZTSN6RakNet36NatPunchthroughDebugInterface_PrintfE @5116 DATA
    _ZTSN6RakNet42NatPunchthroughDebugInterface_PacketLoggerE @5117 DATA
    _ZTSN6RakNet42NatPunchthroughServerDebugInterface_PrintfE @5118 DATA
    _ZTSN6RakNet48NatPunchthroughServerDebugInterface_PacketLoggerE @5119 DATA
    _ZTSN6RakNet4RPC4E @5120 DATA
    _ZTSN6RakNet7RakPeerE @5121 DATA
    _ZTSN6RakNet7Router2E @5122 DATA
    _ZTSN6RakNet7TM_TeamE @5123 DATA
    _ZTSN6RakNet8Replica3E @5124 DATA
    _ZTSN6RakNet8TM_WorldE @5125 DATA
    _ZTV11DDTCallback @5126 DATA
    _ZTVN6RakNet10FLP_PrintfE @5127 DATA
    _ZTVN6RakNet10ReadyEventE @5128 DATA
    _ZTVN6RakNet11CloudClientE @5129 DATA
    _ZTVN6RakNet11CloudServerE @5130 DATA
    _ZTVN6RakNet11RelayPluginE @5131 DATA
    _ZTVN6RakNet11TeamManagerE @5132 DATA
    _ZTVN6RakNet12PacketLoggerE @5133 DATA
    _ZTVN6RakNet12RNS2_BerkleyE @5134 DATA
    _ZTVN6RakNet12RNS2_WindowsE @5135 DATA
    _ZTVN6RakNet12TCPInterfaceE @5136 DATA
    _ZTVN6RakNet12TeamBalancerE @5137 DATA
    _ZTVN6RakNet12UDPForwarderE @5138 DATA
    _ZTVN6RakNet13IRNS2_BerkleyE @5139 DATA
    _ZTVN6RakNet13MessageFilterE @5140 DATA
    _ZTVN6RakNet13PacketizedTCPE @5141 DATA
    _ZTVN6RakNet13RakNetSocket2E @5142 DATA
    _ZTVN6RakNet13TM_TeamMemberE @5143 DATA
    _ZTVN6RakNet14CloudAllocatorE @5144 DATA
    _ZTVN6RakNet14Connection_RM3E @5145 DATA
    _ZTVN6RakNet14HTTPConnectionE @5146 DATA
    _ZTVN6RakNet14UDPProxyClientE @5147 DATA
    _ZTVN6RakNet14UDPProxyServerE @5148 DATA
    _ZTVN6RakNet15HTTPConnection2E @5149 DATA
    _ZTVN6RakNet15NetworkIDObjectE @5150 DATA
    _ZTVN6RakNet15ReplicaManager3E @5151 DATA
    _ZTVN6RakNet15TelnetTransportE @5152 DATA
    _ZTVN6RakNet16ConnectionGraph2E @5153 DATA
    _ZTVN6RakNet16FileListProgressE @5154 DATA
    _ZTVN6RakNet16FileListTransferE @5155 DATA
    _ZTVN6RakNet16LogCommandParserE @5156 DATA
    _ZTVN6RakNet16NetworkIDManagerE @5157 DATA
    _ZTVN6RakNet16PacketFileLoggerE @5158 DATA
    _ZTVN6RakNet16PluginInterface2E @5159 DATA
    _ZTVN6RakNet16RNS2EventHandlerE @5160 DATA
    _ZTVN6RakNet16RakNetRandomSyncE @5161 DATA
    _ZTVN6RakNet16RakNetTransport2E @5162 DATA
    _ZTVN6RakNet16RakPeerInterfaceE @5163 DATA
    _ZTVN6RakNet17StatisticsHistoryE @5164 DATA
    _ZTVN6RakNet18TransportInterfaceE @5165 DATA
    _ZTVN6RakNet19FullyConnectedMesh2E @5166 DATA
    _ZTVN6RakNet19PacketConsoleLoggerE @5167 DATA
    _ZTVN6RakNet19RakNetCommandParserE @5168 DATA
    _ZTVN6RakNet19UDPProxyCoordinatorE @5169 DATA
    _ZTVN6RakNet20TwoWayAuthenticationE @5170 DATA
    _ZTVN6RakNet21NatPunchthroughClientE @5171 DATA
    _ZTVN6RakNet21NatPunchthroughServerE @5172 DATA
    _ZTVN6RakNet21Router2DebugInterfaceE @5173 DATA
    _ZTVN6RakNet22CommandParserInterfaceE @5174 DATA
    _ZTVN6RakNet22DirectoryDeltaTransferE @5175 DATA
    _ZTVN6RakNet22NatTypeDetectionClientE @5176 DATA
    _ZTVN6RakNet22NatTypeDetectionServerE @5177 DATA
    _ZTVN6RakNet22ThreadsafePacketLoggerE @5178 DATA
    _ZTVN6RakNet23StatisticsHistoryPluginE @5179 DATA
    _ZTVN6RakNet24IncrementalReadInterfaceE @5180 DATA
    _ZTVN6RakNet24PacketOutputWindowLoggerE @5181 DATA
    _ZTVN6RakNet27FileListTransferCBInterfaceE @5182 DATA
    _ZTVN6RakNet29NatPunchthroughDebugInterfaceE @5183 DATA
    _ZTVN6RakNet35NatPunchthroughServerDebugInterfaceE @5184 DATA
    _ZTVN6RakNet36NatPunchthroughDebugInterface_PrintfE @5185 DATA
    _ZTVN6RakNet42NatPunchthroughDebugInterface_PacketLoggerE @5186 DATA
    _ZTVN6RakNet42NatPunchthroughServerDebugInterface_PrintfE @5187 DATA
    _ZTVN6RakNet48NatPunchthroughServerDebugInterface_PacketLoggerE @5188 DATA
    _ZTVN6RakNet4RPC4E @5189 DATA
    _ZTVN6RakNet7RakPeerE @5190 DATA
    _ZTVN6RakNet7Router2E @5191 DATA
    _ZTVN6RakNet7TM_TeamE @5192 DATA
    _ZTVN6RakNet8Replica3E @5193 DATA
    _ZTVN6RakNet8TM_WorldE @5194 DATA
    _ZThn12_N6RakNet11CloudServerD0Ev @5195
    _ZThn12_N6RakNet11CloudServerD1Ev @5196
    _ZThn12_N6RakNet22NatTypeDetectionClient10OnRNS2RecvEPNS_14RNS2RecvStructE @5197
    _ZThn12_N6RakNet22NatTypeDetectionClient19AllocRNS2RecvStructEPKcj @5198
    _ZThn12_N6RakNet22NatTypeDetectionClient21DeallocRNS2RecvStructEPNS_14RNS2RecvStructEPKcj @5199
    _ZThn12_N6RakNet22NatTypeDetectionClientD0Ev @5200
    _ZThn12_N6RakNet22NatTypeDetectionClientD1Ev @5201
    _ZThn12_N6RakNet22NatTypeDetectionServer10OnRNS2RecvEPNS_14RNS2RecvStructE @5202
    _ZThn12_N6RakNet22NatTypeDetectionServer19AllocRNS2RecvStructEPKcj @5203
    _ZThn12_N6RakNet22NatTypeDetectionServer21DeallocRNS2RecvStructEPNS_14RNS2RecvStructEPKcj @5204
    _ZThn12_N6RakNet22NatTypeDetectionServerD0Ev @5205
    _ZThn12_N6RakNet22NatTypeDetectionServerD1Ev @5206
    _ZThn4_N6RakNet16RakNetTransport215OnNewConnectionERKNS_13SystemAddressENS_10RakNetGUIDEb @5207
    _ZThn4_N6RakNet16RakNetTransport218OnClosedConnectionERKNS_13SystemAddressENS_10RakNetGUIDENS_24PI2_LostConnectionReasonE @5208
    _ZThn4_N6RakNet16RakNetTransport29OnReceiveEPNS_6PacketE @5209
    _ZThn4_N6RakNet16RakNetTransport2D0Ev @5210
    _ZThn4_N6RakNet16RakNetTransport2D1Ev @5211
    _ZThn4_N6RakNet7RakPeer10OnRNS2RecvEPNS_14RNS2RecvStructE @5212
    _ZThn4_N6RakNet7RakPeer19AllocRNS2RecvStructEPKcj @5213
    _ZThn4_N6RakNet7RakPeer21DeallocRNS2RecvStructEPNS_14RNS2RecvStructEPKcj @5214
    _ZThn4_N6RakNet7RakPeerD0Ev @5215
    _ZThn4_N6RakNet7RakPeerD1Ev @5216
    _ZdlPvS_ @5217
    _ZlsRN6RakNet9BitStreamER19FileListNodeContext @5218
    _ZnwjPv @5219
    _ZplRKN6RakNet9RakStringES2_ @5220
    _ZrsRN6RakNet9BitStreamER19FileListNodeContext @5221
    base64Map @5222 DATA
    dlMallocDirectMMap @5223 DATA
    dlMallocMMap @5224 DATA
    dlMallocMUnmap @5225 DATA
    englishCharacterFrequencies @5226 DATA
    notifyOutOfMemory @5227 DATA
    rakFree @5228 DATA
    rakFree_Ex @5229 DATA
    rakMalloc @5230 DATA
    rakMalloc_Ex @5231 DATA
    rakRealloc @5232 DATA
    rakRealloc_Ex @5233 DATA
    resultTable @5234 DATA
    typeMappings @5235 DATA
